

Microchip MPLAB XC8 Assembler V2.35 build 20211206165544 
                                                                                               Fri Feb 24 10:08:02 2023

Microchip MPLAB XC8 C Compiler v2.35 (Free license) build 20211206165544 Og1 
     1                           	processor	16F18346
     2                           	pagewidth 120
     3                           	opt	flic
     4                           	psect	idataBANK0,global,class=CODE,delta=2,noexec
     5                           	psect	stringtext1,global,class=STRCODE,delta=2,noexec
     6                           	psect	cinit,global,class=CODE,merge=1,delta=2
     7                           	psect	bssBANK0,global,class=BANK0,space=1,delta=1,noexec
     8                           	psect	dataBANK0,global,class=BANK0,space=1,delta=1,noexec
     9                           	psect	cstackCOMMON,global,class=COMMON,space=1,delta=1,noexec
    10                           	psect	cstackBANK0,global,class=BANK0,space=1,delta=1,noexec
    11                           	psect	maintext,global,class=CODE,merge=1,split=1,delta=2
    12                           	psect	text1,local,class=CODE,merge=1,delta=2,group=2
    13                           	psect	text2,local,class=CODE,merge=1,delta=2,group=1
    14                           	psect	text3,local,class=CODE,merge=1,delta=2
    15                           	psect	text4,local,class=CODE,merge=1,delta=2
    16                           	psect	text5,local,class=CODE,merge=1,delta=2
    17                           	psect	text6,local,class=CODE,merge=1,delta=2
    18                           	psect	text7,local,class=CODE,merge=1,delta=2
    19                           	psect	text8,local,class=CODE,merge=1,delta=2
    20                           	psect	text9,local,class=CODE,merge=1,delta=2
    21                           	psect	text10,local,class=CODE,merge=1,delta=2
    22                           	psect	text11,local,class=CODE,merge=1,delta=2
    23                           	psect	idloc,global,abs,ovrld,class=IDLOC,space=5,delta=2,noexec
    24                           	psect	config,global,abs,ovrld,class=CONFIG,space=4,delta=2,noexec
    25                           	dabs	1,0x7E,2
    26  0000                     
    27                           ; Version 2.40
    28                           ; Generated 02/12/2021 GMT
    29                           ; 
    30                           ; Copyright © 2021, Microchip Technology Inc. and its subsidiaries ("Microchip")
    31                           ; All rights reserved.
    32                           ; 
    33                           ; This software is developed by Microchip Technology Inc. and its subsidiaries ("Microch
      +                          ip").
    34                           ; 
    35                           ; Redistribution and use in source and binary forms, with or without modification, are
    36                           ; permitted provided that the following conditions are met:
    37                           ; 
    38                           ;     1. Redistributions of source code must retain the above copyright notice, this lis
      +                          t of
    39                           ;        conditions and the following disclaimer.
    40                           ; 
    41                           ;     2. Redistributions in binary form must reproduce the above copyright notice, this 
      +                          list
    42                           ;        of conditions and the following disclaimer in the documentation and/or other
    43                           ;        materials provided with the distribution. Publication is not required when
    44                           ;        this file is used in an embedded application.
    45                           ; 
    46                           ;     3. Microchip's name may not be used to endorse or promote products derived from th
      +                          is
    47                           ;        software without specific prior written permission.
    48                           ; 
    49                           ; THIS SOFTWARE IS PROVIDED BY MICROCHIP "AS IS" AND ANY EXPRESS OR IMPLIED WARRANTIES,
    50                           ; INCLUDING, BUT NOT LIMITED TO, THE IMPLIED WARRANTIES OF MERCHANTABILITY AND FITNESS F
      +                          OR
    51                           ; PURPOSE ARE DISCLAIMED.  IN NO EVENT SHALL MICROCHIP BE LIABLE FOR ANY DIRECT, INDIREC
      +                          T,
    52                           ; INCIDENTAL, SPECIAL, EXEMPLARY, OR CONSEQUENTIAL DAMAGES (INCLUDING BUT NOT LIMITED TO
    53                           ; PROCUREMENT OF SUBSTITUTE GOODS OR SERVICES; LOSS OF USE, DATA OR PROFITS; OR BUSINESS
    54                           ; INTERRUPTION) HOWSOEVER CAUSED AND ON ANY THEORY OF LIABILITY, WHETHER IN CONTRACT, ST
      +                          RICT
    55                           ; LIABILITY, OR TORT (INCLUDING NEGLIGENCE OR OTHERWISE) ARISING IN ANY WAY OUT OF THE U
      +                          SE OF
    56                           ; THIS SOFTWARE, EVEN IF ADVISED OF THE POSSIBILITY OF SUCH DAMAGE.
    57                           ; 
    58                           ; 
    59                           ; Code-generator required, PIC16F18346 Definitions
    60                           ; 
    61                           ; SFR Addresses
    62  0000                     	;# 
    63  0001                     	;# 
    64  0002                     	;# 
    65  0003                     	;# 
    66  0004                     	;# 
    67  0005                     	;# 
    68  0006                     	;# 
    69  0007                     	;# 
    70  0008                     	;# 
    71  0009                     	;# 
    72  000A                     	;# 
    73  000B                     	;# 
    74  000C                     	;# 
    75  000D                     	;# 
    76  000E                     	;# 
    77  0010                     	;# 
    78  0011                     	;# 
    79  0012                     	;# 
    80  0013                     	;# 
    81  0014                     	;# 
    82  0015                     	;# 
    83  0015                     	;# 
    84  0016                     	;# 
    85  0016                     	;# 
    86  0017                     	;# 
    87  0018                     	;# 
    88  0019                     	;# 
    89  0019                     	;# 
    90  001A                     	;# 
    91  001B                     	;# 
    92  001C                     	;# 
    93  001D                     	;# 
    94  001E                     	;# 
    95  001F                     	;# 
    96  008C                     	;# 
    97  008D                     	;# 
    98  008E                     	;# 
    99  0090                     	;# 
   100  0091                     	;# 
   101  0092                     	;# 
   102  0093                     	;# 
   103  0094                     	;# 
   104  0097                     	;# 
   105  009B                     	;# 
   106  009B                     	;# 
   107  009C                     	;# 
   108  009D                     	;# 
   109  009E                     	;# 
   110  009F                     	;# 
   111  010C                     	;# 
   112  010D                     	;# 
   113  010E                     	;# 
   114  0111                     	;# 
   115  0112                     	;# 
   116  0113                     	;# 
   117  0114                     	;# 
   118  0115                     	;# 
   119  0116                     	;# 
   120  0117                     	;# 
   121  0118                     	;# 
   122  0119                     	;# 
   123  018C                     	;# 
   124  018D                     	;# 
   125  018E                     	;# 
   126  0197                     	;# 
   127  0199                     	;# 
   128  0199                     	;# 
   129  0199                     	;# 
   130  019A                     	;# 
   131  019A                     	;# 
   132  019A                     	;# 
   133  019B                     	;# 
   134  019B                     	;# 
   135  019B                     	;# 
   136  019B                     	;# 
   137  019B                     	;# 
   138  019C                     	;# 
   139  019C                     	;# 
   140  019C                     	;# 
   141  019D                     	;# 
   142  019D                     	;# 
   143  019D                     	;# 
   144  019E                     	;# 
   145  019E                     	;# 
   146  019E                     	;# 
   147  019F                     	;# 
   148  019F                     	;# 
   149  019F                     	;# 
   150  019F                     	;# 
   151  019F                     	;# 
   152  020C                     	;# 
   153  020D                     	;# 
   154  020E                     	;# 
   155  0211                     	;# 
   156  0211                     	;# 
   157  0212                     	;# 
   158  0212                     	;# 
   159  0213                     	;# 
   160  0213                     	;# 
   161  0214                     	;# 
   162  0214                     	;# 
   163  0215                     	;# 
   164  0215                     	;# 
   165  0215                     	;# 
   166  0215                     	;# 
   167  0216                     	;# 
   168  0216                     	;# 
   169  0217                     	;# 
   170  0217                     	;# 
   171  0219                     	;# 
   172  021A                     	;# 
   173  021B                     	;# 
   174  021C                     	;# 
   175  021D                     	;# 
   176  021D                     	;# 
   177  021E                     	;# 
   178  021F                     	;# 
   179  028C                     	;# 
   180  028D                     	;# 
   181  028E                     	;# 
   182  0291                     	;# 
   183  0291                     	;# 
   184  0292                     	;# 
   185  0293                     	;# 
   186  0294                     	;# 
   187  0295                     	;# 
   188  0295                     	;# 
   189  0296                     	;# 
   190  0297                     	;# 
   191  0298                     	;# 
   192  029F                     	;# 
   193  030C                     	;# 
   194  030D                     	;# 
   195  030E                     	;# 
   196  0311                     	;# 
   197  0311                     	;# 
   198  0312                     	;# 
   199  0313                     	;# 
   200  0314                     	;# 
   201  0315                     	;# 
   202  0315                     	;# 
   203  0316                     	;# 
   204  0317                     	;# 
   205  0318                     	;# 
   206  038C                     	;# 
   207  038D                     	;# 
   208  038E                     	;# 
   209  0391                     	;# 
   210  0392                     	;# 
   211  0393                     	;# 
   212  0394                     	;# 
   213  0395                     	;# 
   214  0396                     	;# 
   215  0397                     	;# 
   216  0398                     	;# 
   217  0399                     	;# 
   218  039A                     	;# 
   219  039C                     	;# 
   220  039D                     	;# 
   221  039E                     	;# 
   222  039F                     	;# 
   223  0411                     	;# 
   224  0411                     	;# 
   225  0412                     	;# 
   226  0413                     	;# 
   227  0414                     	;# 
   228  0415                     	;# 
   229  0416                     	;# 
   230  0417                     	;# 
   231  0418                     	;# 
   232  0418                     	;# 
   233  0419                     	;# 
   234  041A                     	;# 
   235  041B                     	;# 
   236  041C                     	;# 
   237  041D                     	;# 
   238  041E                     	;# 
   239  041F                     	;# 
   240  0498                     	;# 
   241  0498                     	;# 
   242  0499                     	;# 
   243  049A                     	;# 
   244  049B                     	;# 
   245  049B                     	;# 
   246  049C                     	;# 
   247  049D                     	;# 
   248  049E                     	;# 
   249  049F                     	;# 
   250  0617                     	;# 
   251  0618                     	;# 
   252  0619                     	;# 
   253  0619                     	;# 
   254  061A                     	;# 
   255  061B                     	;# 
   256  061C                     	;# 
   257  061C                     	;# 
   258  061F                     	;# 
   259  0691                     	;# 
   260  0692                     	;# 
   261  0693                     	;# 
   262  0694                     	;# 
   263  0695                     	;# 
   264  0696                     	;# 
   265  0697                     	;# 
   266  0698                     	;# 
   267  0699                     	;# 
   268  0711                     	;# 
   269  0712                     	;# 
   270  0713                     	;# 
   271  0714                     	;# 
   272  0715                     	;# 
   273  0716                     	;# 
   274  0717                     	;# 
   275  0718                     	;# 
   276  0719                     	;# 
   277  0891                     	;# 
   278  0891                     	;# 
   279  0891                     	;# 
   280  0891                     	;# 
   281  0891                     	;# 
   282  0891                     	;# 
   283  0892                     	;# 
   284  0892                     	;# 
   285  0892                     	;# 
   286  0893                     	;# 
   287  0893                     	;# 
   288  0893                     	;# 
   289  0893                     	;# 
   290  0893                     	;# 
   291  0893                     	;# 
   292  0894                     	;# 
   293  0894                     	;# 
   294  0894                     	;# 
   295  0895                     	;# 
   296  0895                     	;# 
   297  0895                     	;# 
   298  0896                     	;# 
   299  0896                     	;# 
   300  0896                     	;# 
   301  089B                     	;# 
   302  0911                     	;# 
   303  0912                     	;# 
   304  0913                     	;# 
   305  0914                     	;# 
   306  0915                     	;# 
   307  0916                     	;# 
   308  0918                     	;# 
   309  0919                     	;# 
   310  091A                     	;# 
   311  091B                     	;# 
   312  091C                     	;# 
   313  091D                     	;# 
   314  091E                     	;# 
   315  091F                     	;# 
   316  0E0F                     	;# 
   317  0E10                     	;# 
   318  0E11                     	;# 
   319  0E12                     	;# 
   320  0E13                     	;# 
   321  0E14                     	;# 
   322  0E15                     	;# 
   323  0E16                     	;# 
   324  0E17                     	;# 
   325  0E18                     	;# 
   326  0E19                     	;# 
   327  0E1A                     	;# 
   328  0E1B                     	;# 
   329  0E1C                     	;# 
   330  0E1D                     	;# 
   331  0E1E                     	;# 
   332  0E1F                     	;# 
   333  0E20                     	;# 
   334  0E21                     	;# 
   335  0E22                     	;# 
   336  0E24                     	;# 
   337  0E25                     	;# 
   338  0E28                     	;# 
   339  0E29                     	;# 
   340  0E2A                     	;# 
   341  0E2B                     	;# 
   342  0E2C                     	;# 
   343  0E2D                     	;# 
   344  0E2E                     	;# 
   345  0E2F                     	;# 
   346  0E90                     	;# 
   347  0E91                     	;# 
   348  0E92                     	;# 
   349  0E94                     	;# 
   350  0E95                     	;# 
   351  0E9C                     	;# 
   352  0E9D                     	;# 
   353  0E9E                     	;# 
   354  0E9F                     	;# 
   355  0EA0                     	;# 
   356  0EA1                     	;# 
   357  0EA2                     	;# 
   358  0EA3                     	;# 
   359  0EA4                     	;# 
   360  0EA5                     	;# 
   361  0EA6                     	;# 
   362  0EA7                     	;# 
   363  0F0F                     	;# 
   364  0F10                     	;# 
   365  0F11                     	;# 
   366  0F12                     	;# 
   367  0F13                     	;# 
   368  0F14                     	;# 
   369  0F15                     	;# 
   370  0F16                     	;# 
   371  0F17                     	;# 
   372  0F18                     	;# 
   373  0F19                     	;# 
   374  0F1A                     	;# 
   375  0F1B                     	;# 
   376  0F1C                     	;# 
   377  0F1D                     	;# 
   378  0F1E                     	;# 
   379  0F1F                     	;# 
   380  0F20                     	;# 
   381  0F21                     	;# 
   382  0F22                     	;# 
   383  0F23                     	;# 
   384  0F24                     	;# 
   385  0F25                     	;# 
   386  0F26                     	;# 
   387  0F27                     	;# 
   388  0F28                     	;# 
   389  0F29                     	;# 
   390  0F2A                     	;# 
   391  0F2B                     	;# 
   392  0F2C                     	;# 
   393  0F2D                     	;# 
   394  0F2E                     	;# 
   395  0F2F                     	;# 
   396  0F30                     	;# 
   397  0F31                     	;# 
   398  0F32                     	;# 
   399  0F33                     	;# 
   400  0F34                     	;# 
   401  0F35                     	;# 
   402  0F36                     	;# 
   403  0F37                     	;# 
   404  0FE4                     	;# 
   405  0FE5                     	;# 
   406  0FE6                     	;# 
   407  0FE7                     	;# 
   408  0FE8                     	;# 
   409  0FE9                     	;# 
   410  0FEA                     	;# 
   411  0FEB                     	;# 
   412  0FED                     	;# 
   413  0FEE                     	;# 
   414  0FEF                     	;# 
   415  0000                     	;# 
   416  0001                     	;# 
   417  0002                     	;# 
   418  0003                     	;# 
   419  0004                     	;# 
   420  0005                     	;# 
   421  0006                     	;# 
   422  0007                     	;# 
   423  0008                     	;# 
   424  0009                     	;# 
   425  000A                     	;# 
   426  000B                     	;# 
   427  000C                     	;# 
   428  000D                     	;# 
   429  000E                     	;# 
   430  0010                     	;# 
   431  0011                     	;# 
   432  0012                     	;# 
   433  0013                     	;# 
   434  0014                     	;# 
   435  0015                     	;# 
   436  0015                     	;# 
   437  0016                     	;# 
   438  0016                     	;# 
   439  0017                     	;# 
   440  0018                     	;# 
   441  0019                     	;# 
   442  0019                     	;# 
   443  001A                     	;# 
   444  001B                     	;# 
   445  001C                     	;# 
   446  001D                     	;# 
   447  001E                     	;# 
   448  001F                     	;# 
   449  008C                     	;# 
   450  008D                     	;# 
   451  008E                     	;# 
   452  0090                     	;# 
   453  0091                     	;# 
   454  0092                     	;# 
   455  0093                     	;# 
   456  0094                     	;# 
   457  0097                     	;# 
   458  009B                     	;# 
   459  009B                     	;# 
   460  009C                     	;# 
   461  009D                     	;# 
   462  009E                     	;# 
   463  009F                     	;# 
   464  010C                     	;# 
   465  010D                     	;# 
   466  010E                     	;# 
   467  0111                     	;# 
   468  0112                     	;# 
   469  0113                     	;# 
   470  0114                     	;# 
   471  0115                     	;# 
   472  0116                     	;# 
   473  0117                     	;# 
   474  0118                     	;# 
   475  0119                     	;# 
   476  018C                     	;# 
   477  018D                     	;# 
   478  018E                     	;# 
   479  0197                     	;# 
   480  0199                     	;# 
   481  0199                     	;# 
   482  0199                     	;# 
   483  019A                     	;# 
   484  019A                     	;# 
   485  019A                     	;# 
   486  019B                     	;# 
   487  019B                     	;# 
   488  019B                     	;# 
   489  019B                     	;# 
   490  019B                     	;# 
   491  019C                     	;# 
   492  019C                     	;# 
   493  019C                     	;# 
   494  019D                     	;# 
   495  019D                     	;# 
   496  019D                     	;# 
   497  019E                     	;# 
   498  019E                     	;# 
   499  019E                     	;# 
   500  019F                     	;# 
   501  019F                     	;# 
   502  019F                     	;# 
   503  019F                     	;# 
   504  019F                     	;# 
   505  020C                     	;# 
   506  020D                     	;# 
   507  020E                     	;# 
   508  0211                     	;# 
   509  0211                     	;# 
   510  0212                     	;# 
   511  0212                     	;# 
   512  0213                     	;# 
   513  0213                     	;# 
   514  0214                     	;# 
   515  0214                     	;# 
   516  0215                     	;# 
   517  0215                     	;# 
   518  0215                     	;# 
   519  0215                     	;# 
   520  0216                     	;# 
   521  0216                     	;# 
   522  0217                     	;# 
   523  0217                     	;# 
   524  0219                     	;# 
   525  021A                     	;# 
   526  021B                     	;# 
   527  021C                     	;# 
   528  021D                     	;# 
   529  021D                     	;# 
   530  021E                     	;# 
   531  021F                     	;# 
   532  028C                     	;# 
   533  028D                     	;# 
   534  028E                     	;# 
   535  0291                     	;# 
   536  0291                     	;# 
   537  0292                     	;# 
   538  0293                     	;# 
   539  0294                     	;# 
   540  0295                     	;# 
   541  0295                     	;# 
   542  0296                     	;# 
   543  0297                     	;# 
   544  0298                     	;# 
   545  029F                     	;# 
   546  030C                     	;# 
   547  030D                     	;# 
   548  030E                     	;# 
   549  0311                     	;# 
   550  0311                     	;# 
   551  0312                     	;# 
   552  0313                     	;# 
   553  0314                     	;# 
   554  0315                     	;# 
   555  0315                     	;# 
   556  0316                     	;# 
   557  0317                     	;# 
   558  0318                     	;# 
   559  038C                     	;# 
   560  038D                     	;# 
   561  038E                     	;# 
   562  0391                     	;# 
   563  0392                     	;# 
   564  0393                     	;# 
   565  0394                     	;# 
   566  0395                     	;# 
   567  0396                     	;# 
   568  0397                     	;# 
   569  0398                     	;# 
   570  0399                     	;# 
   571  039A                     	;# 
   572  039C                     	;# 
   573  039D                     	;# 
   574  039E                     	;# 
   575  039F                     	;# 
   576  0411                     	;# 
   577  0411                     	;# 
   578  0412                     	;# 
   579  0413                     	;# 
   580  0414                     	;# 
   581  0415                     	;# 
   582  0416                     	;# 
   583  0417                     	;# 
   584  0418                     	;# 
   585  0418                     	;# 
   586  0419                     	;# 
   587  041A                     	;# 
   588  041B                     	;# 
   589  041C                     	;# 
   590  041D                     	;# 
   591  041E                     	;# 
   592  041F                     	;# 
   593  0498                     	;# 
   594  0498                     	;# 
   595  0499                     	;# 
   596  049A                     	;# 
   597  049B                     	;# 
   598  049B                     	;# 
   599  049C                     	;# 
   600  049D                     	;# 
   601  049E                     	;# 
   602  049F                     	;# 
   603  0617                     	;# 
   604  0618                     	;# 
   605  0619                     	;# 
   606  0619                     	;# 
   607  061A                     	;# 
   608  061B                     	;# 
   609  061C                     	;# 
   610  061C                     	;# 
   611  061F                     	;# 
   612  0691                     	;# 
   613  0692                     	;# 
   614  0693                     	;# 
   615  0694                     	;# 
   616  0695                     	;# 
   617  0696                     	;# 
   618  0697                     	;# 
   619  0698                     	;# 
   620  0699                     	;# 
   621  0711                     	;# 
   622  0712                     	;# 
   623  0713                     	;# 
   624  0714                     	;# 
   625  0715                     	;# 
   626  0716                     	;# 
   627  0717                     	;# 
   628  0718                     	;# 
   629  0719                     	;# 
   630  0891                     	;# 
   631  0891                     	;# 
   632  0891                     	;# 
   633  0891                     	;# 
   634  0891                     	;# 
   635  0891                     	;# 
   636  0892                     	;# 
   637  0892                     	;# 
   638  0892                     	;# 
   639  0893                     	;# 
   640  0893                     	;# 
   641  0893                     	;# 
   642  0893                     	;# 
   643  0893                     	;# 
   644  0893                     	;# 
   645  0894                     	;# 
   646  0894                     	;# 
   647  0894                     	;# 
   648  0895                     	;# 
   649  0895                     	;# 
   650  0895                     	;# 
   651  0896                     	;# 
   652  0896                     	;# 
   653  0896                     	;# 
   654  089B                     	;# 
   655  0911                     	;# 
   656  0912                     	;# 
   657  0913                     	;# 
   658  0914                     	;# 
   659  0915                     	;# 
   660  0916                     	;# 
   661  0918                     	;# 
   662  0919                     	;# 
   663  091A                     	;# 
   664  091B                     	;# 
   665  091C                     	;# 
   666  091D                     	;# 
   667  091E                     	;# 
   668  091F                     	;# 
   669  0E0F                     	;# 
   670  0E10                     	;# 
   671  0E11                     	;# 
   672  0E12                     	;# 
   673  0E13                     	;# 
   674  0E14                     	;# 
   675  0E15                     	;# 
   676  0E16                     	;# 
   677  0E17                     	;# 
   678  0E18                     	;# 
   679  0E19                     	;# 
   680  0E1A                     	;# 
   681  0E1B                     	;# 
   682  0E1C                     	;# 
   683  0E1D                     	;# 
   684  0E1E                     	;# 
   685  0E1F                     	;# 
   686  0E20                     	;# 
   687  0E21                     	;# 
   688  0E22                     	;# 
   689  0E24                     	;# 
   690  0E25                     	;# 
   691  0E28                     	;# 
   692  0E29                     	;# 
   693  0E2A                     	;# 
   694  0E2B                     	;# 
   695  0E2C                     	;# 
   696  0E2D                     	;# 
   697  0E2E                     	;# 
   698  0E2F                     	;# 
   699  0E90                     	;# 
   700  0E91                     	;# 
   701  0E92                     	;# 
   702  0E94                     	;# 
   703  0E95                     	;# 
   704  0E9C                     	;# 
   705  0E9D                     	;# 
   706  0E9E                     	;# 
   707  0E9F                     	;# 
   708  0EA0                     	;# 
   709  0EA1                     	;# 
   710  0EA2                     	;# 
   711  0EA3                     	;# 
   712  0EA4                     	;# 
   713  0EA5                     	;# 
   714  0EA6                     	;# 
   715  0EA7                     	;# 
   716  0F0F                     	;# 
   717  0F10                     	;# 
   718  0F11                     	;# 
   719  0F12                     	;# 
   720  0F13                     	;# 
   721  0F14                     	;# 
   722  0F15                     	;# 
   723  0F16                     	;# 
   724  0F17                     	;# 
   725  0F18                     	;# 
   726  0F19                     	;# 
   727  0F1A                     	;# 
   728  0F1B                     	;# 
   729  0F1C                     	;# 
   730  0F1D                     	;# 
   731  0F1E                     	;# 
   732  0F1F                     	;# 
   733  0F20                     	;# 
   734  0F21                     	;# 
   735  0F22                     	;# 
   736  0F23                     	;# 
   737  0F24                     	;# 
   738  0F25                     	;# 
   739  0F26                     	;# 
   740  0F27                     	;# 
   741  0F28                     	;# 
   742  0F29                     	;# 
   743  0F2A                     	;# 
   744  0F2B                     	;# 
   745  0F2C                     	;# 
   746  0F2D                     	;# 
   747  0F2E                     	;# 
   748  0F2F                     	;# 
   749  0F30                     	;# 
   750  0F31                     	;# 
   751  0F32                     	;# 
   752  0F33                     	;# 
   753  0F34                     	;# 
   754  0F35                     	;# 
   755  0F36                     	;# 
   756  0F37                     	;# 
   757  0FE4                     	;# 
   758  0FE5                     	;# 
   759  0FE6                     	;# 
   760  0FE7                     	;# 
   761  0FE8                     	;# 
   762  0FE9                     	;# 
   763  0FEA                     	;# 
   764  0FEB                     	;# 
   765  0FED                     	;# 
   766  0FEE                     	;# 
   767  0FEF                     	;# 
   768  0000                     	;# 
   769  0001                     	;# 
   770  0002                     	;# 
   771  0003                     	;# 
   772  0004                     	;# 
   773  0005                     	;# 
   774  0006                     	;# 
   775  0007                     	;# 
   776  0008                     	;# 
   777  0009                     	;# 
   778  000A                     	;# 
   779  000B                     	;# 
   780  000C                     	;# 
   781  000D                     	;# 
   782  000E                     	;# 
   783  0010                     	;# 
   784  0011                     	;# 
   785  0012                     	;# 
   786  0013                     	;# 
   787  0014                     	;# 
   788  0015                     	;# 
   789  0015                     	;# 
   790  0016                     	;# 
   791  0016                     	;# 
   792  0017                     	;# 
   793  0018                     	;# 
   794  0019                     	;# 
   795  0019                     	;# 
   796  001A                     	;# 
   797  001B                     	;# 
   798  001C                     	;# 
   799  001D                     	;# 
   800  001E                     	;# 
   801  001F                     	;# 
   802  008C                     	;# 
   803  008D                     	;# 
   804  008E                     	;# 
   805  0090                     	;# 
   806  0091                     	;# 
   807  0092                     	;# 
   808  0093                     	;# 
   809  0094                     	;# 
   810  0097                     	;# 
   811  009B                     	;# 
   812  009B                     	;# 
   813  009C                     	;# 
   814  009D                     	;# 
   815  009E                     	;# 
   816  009F                     	;# 
   817  010C                     	;# 
   818  010D                     	;# 
   819  010E                     	;# 
   820  0111                     	;# 
   821  0112                     	;# 
   822  0113                     	;# 
   823  0114                     	;# 
   824  0115                     	;# 
   825  0116                     	;# 
   826  0117                     	;# 
   827  0118                     	;# 
   828  0119                     	;# 
   829  018C                     	;# 
   830  018D                     	;# 
   831  018E                     	;# 
   832  0197                     	;# 
   833  0199                     	;# 
   834  0199                     	;# 
   835  0199                     	;# 
   836  019A                     	;# 
   837  019A                     	;# 
   838  019A                     	;# 
   839  019B                     	;# 
   840  019B                     	;# 
   841  019B                     	;# 
   842  019B                     	;# 
   843  019B                     	;# 
   844  019C                     	;# 
   845  019C                     	;# 
   846  019C                     	;# 
   847  019D                     	;# 
   848  019D                     	;# 
   849  019D                     	;# 
   850  019E                     	;# 
   851  019E                     	;# 
   852  019E                     	;# 
   853  019F                     	;# 
   854  019F                     	;# 
   855  019F                     	;# 
   856  019F                     	;# 
   857  019F                     	;# 
   858  020C                     	;# 
   859  020D                     	;# 
   860  020E                     	;# 
   861  0211                     	;# 
   862  0211                     	;# 
   863  0212                     	;# 
   864  0212                     	;# 
   865  0213                     	;# 
   866  0213                     	;# 
   867  0214                     	;# 
   868  0214                     	;# 
   869  0215                     	;# 
   870  0215                     	;# 
   871  0215                     	;# 
   872  0215                     	;# 
   873  0216                     	;# 
   874  0216                     	;# 
   875  0217                     	;# 
   876  0217                     	;# 
   877  0219                     	;# 
   878  021A                     	;# 
   879  021B                     	;# 
   880  021C                     	;# 
   881  021D                     	;# 
   882  021D                     	;# 
   883  021E                     	;# 
   884  021F                     	;# 
   885  028C                     	;# 
   886  028D                     	;# 
   887  028E                     	;# 
   888  0291                     	;# 
   889  0291                     	;# 
   890  0292                     	;# 
   891  0293                     	;# 
   892  0294                     	;# 
   893  0295                     	;# 
   894  0295                     	;# 
   895  0296                     	;# 
   896  0297                     	;# 
   897  0298                     	;# 
   898  029F                     	;# 
   899  030C                     	;# 
   900  030D                     	;# 
   901  030E                     	;# 
   902  0311                     	;# 
   903  0311                     	;# 
   904  0312                     	;# 
   905  0313                     	;# 
   906  0314                     	;# 
   907  0315                     	;# 
   908  0315                     	;# 
   909  0316                     	;# 
   910  0317                     	;# 
   911  0318                     	;# 
   912  038C                     	;# 
   913  038D                     	;# 
   914  038E                     	;# 
   915  0391                     	;# 
   916  0392                     	;# 
   917  0393                     	;# 
   918  0394                     	;# 
   919  0395                     	;# 
   920  0396                     	;# 
   921  0397                     	;# 
   922  0398                     	;# 
   923  0399                     	;# 
   924  039A                     	;# 
   925  039C                     	;# 
   926  039D                     	;# 
   927  039E                     	;# 
   928  039F                     	;# 
   929  0411                     	;# 
   930  0411                     	;# 
   931  0412                     	;# 
   932  0413                     	;# 
   933  0414                     	;# 
   934  0415                     	;# 
   935  0416                     	;# 
   936  0417                     	;# 
   937  0418                     	;# 
   938  0418                     	;# 
   939  0419                     	;# 
   940  041A                     	;# 
   941  041B                     	;# 
   942  041C                     	;# 
   943  041D                     	;# 
   944  041E                     	;# 
   945  041F                     	;# 
   946  0498                     	;# 
   947  0498                     	;# 
   948  0499                     	;# 
   949  049A                     	;# 
   950  049B                     	;# 
   951  049B                     	;# 
   952  049C                     	;# 
   953  049D                     	;# 
   954  049E                     	;# 
   955  049F                     	;# 
   956  0617                     	;# 
   957  0618                     	;# 
   958  0619                     	;# 
   959  0619                     	;# 
   960  061A                     	;# 
   961  061B                     	;# 
   962  061C                     	;# 
   963  061C                     	;# 
   964  061F                     	;# 
   965  0691                     	;# 
   966  0692                     	;# 
   967  0693                     	;# 
   968  0694                     	;# 
   969  0695                     	;# 
   970  0696                     	;# 
   971  0697                     	;# 
   972  0698                     	;# 
   973  0699                     	;# 
   974  0711                     	;# 
   975  0712                     	;# 
   976  0713                     	;# 
   977  0714                     	;# 
   978  0715                     	;# 
   979  0716                     	;# 
   980  0717                     	;# 
   981  0718                     	;# 
   982  0719                     	;# 
   983  0891                     	;# 
   984  0891                     	;# 
   985  0891                     	;# 
   986  0891                     	;# 
   987  0891                     	;# 
   988  0891                     	;# 
   989  0892                     	;# 
   990  0892                     	;# 
   991  0892                     	;# 
   992  0893                     	;# 
   993  0893                     	;# 
   994  0893                     	;# 
   995  0893                     	;# 
   996  0893                     	;# 
   997  0893                     	;# 
   998  0894                     	;# 
   999  0894                     	;# 
  1000  0894                     	;# 
  1001  0895                     	;# 
  1002  0895                     	;# 
  1003  0895                     	;# 
  1004  0896                     	;# 
  1005  0896                     	;# 
  1006  0896                     	;# 
  1007  089B                     	;# 
  1008  0911                     	;# 
  1009  0912                     	;# 
  1010  0913                     	;# 
  1011  0914                     	;# 
  1012  0915                     	;# 
  1013  0916                     	;# 
  1014  0918                     	;# 
  1015  0919                     	;# 
  1016  091A                     	;# 
  1017  091B                     	;# 
  1018  091C                     	;# 
  1019  091D                     	;# 
  1020  091E                     	;# 
  1021  091F                     	;# 
  1022  0E0F                     	;# 
  1023  0E10                     	;# 
  1024  0E11                     	;# 
  1025  0E12                     	;# 
  1026  0E13                     	;# 
  1027  0E14                     	;# 
  1028  0E15                     	;# 
  1029  0E16                     	;# 
  1030  0E17                     	;# 
  1031  0E18                     	;# 
  1032  0E19                     	;# 
  1033  0E1A                     	;# 
  1034  0E1B                     	;# 
  1035  0E1C                     	;# 
  1036  0E1D                     	;# 
  1037  0E1E                     	;# 
  1038  0E1F                     	;# 
  1039  0E20                     	;# 
  1040  0E21                     	;# 
  1041  0E22                     	;# 
  1042  0E24                     	;# 
  1043  0E25                     	;# 
  1044  0E28                     	;# 
  1045  0E29                     	;# 
  1046  0E2A                     	;# 
  1047  0E2B                     	;# 
  1048  0E2C                     	;# 
  1049  0E2D                     	;# 
  1050  0E2E                     	;# 
  1051  0E2F                     	;# 
  1052  0E90                     	;# 
  1053  0E91                     	;# 
  1054  0E92                     	;# 
  1055  0E94                     	;# 
  1056  0E95                     	;# 
  1057  0E9C                     	;# 
  1058  0E9D                     	;# 
  1059  0E9E                     	;# 
  1060  0E9F                     	;# 
  1061  0EA0                     	;# 
  1062  0EA1                     	;# 
  1063  0EA2                     	;# 
  1064  0EA3                     	;# 
  1065  0EA4                     	;# 
  1066  0EA5                     	;# 
  1067  0EA6                     	;# 
  1068  0EA7                     	;# 
  1069  0F0F                     	;# 
  1070  0F10                     	;# 
  1071  0F11                     	;# 
  1072  0F12                     	;# 
  1073  0F13                     	;# 
  1074  0F14                     	;# 
  1075  0F15                     	;# 
  1076  0F16                     	;# 
  1077  0F17                     	;# 
  1078  0F18                     	;# 
  1079  0F19                     	;# 
  1080  0F1A                     	;# 
  1081  0F1B                     	;# 
  1082  0F1C                     	;# 
  1083  0F1D                     	;# 
  1084  0F1E                     	;# 
  1085  0F1F                     	;# 
  1086  0F20                     	;# 
  1087  0F21                     	;# 
  1088  0F22                     	;# 
  1089  0F23                     	;# 
  1090  0F24                     	;# 
  1091  0F25                     	;# 
  1092  0F26                     	;# 
  1093  0F27                     	;# 
  1094  0F28                     	;# 
  1095  0F29                     	;# 
  1096  0F2A                     	;# 
  1097  0F2B                     	;# 
  1098  0F2C                     	;# 
  1099  0F2D                     	;# 
  1100  0F2E                     	;# 
  1101  0F2F                     	;# 
  1102  0F30                     	;# 
  1103  0F31                     	;# 
  1104  0F32                     	;# 
  1105  0F33                     	;# 
  1106  0F34                     	;# 
  1107  0F35                     	;# 
  1108  0F36                     	;# 
  1109  0F37                     	;# 
  1110  0FE4                     	;# 
  1111  0FE5                     	;# 
  1112  0FE6                     	;# 
  1113  0FE7                     	;# 
  1114  0FE8                     	;# 
  1115  0FE9                     	;# 
  1116  0FEA                     	;# 
  1117  0FEB                     	;# 
  1118  0FED                     	;# 
  1119  0FEE                     	;# 
  1120  0FEF                     	;# 
  1121  0000                     	;# 
  1122  0001                     	;# 
  1123  0002                     	;# 
  1124  0003                     	;# 
  1125  0004                     	;# 
  1126  0005                     	;# 
  1127  0006                     	;# 
  1128  0007                     	;# 
  1129  0008                     	;# 
  1130  0009                     	;# 
  1131  000A                     	;# 
  1132  000B                     	;# 
  1133  000C                     	;# 
  1134  000D                     	;# 
  1135  000E                     	;# 
  1136  0010                     	;# 
  1137  0011                     	;# 
  1138  0012                     	;# 
  1139  0013                     	;# 
  1140  0014                     	;# 
  1141  0015                     	;# 
  1142  0015                     	;# 
  1143  0016                     	;# 
  1144  0016                     	;# 
  1145  0017                     	;# 
  1146  0018                     	;# 
  1147  0019                     	;# 
  1148  0019                     	;# 
  1149  001A                     	;# 
  1150  001B                     	;# 
  1151  001C                     	;# 
  1152  001D                     	;# 
  1153  001E                     	;# 
  1154  001F                     	;# 
  1155  008C                     	;# 
  1156  008D                     	;# 
  1157  008E                     	;# 
  1158  0090                     	;# 
  1159  0091                     	;# 
  1160  0092                     	;# 
  1161  0093                     	;# 
  1162  0094                     	;# 
  1163  0097                     	;# 
  1164  009B                     	;# 
  1165  009B                     	;# 
  1166  009C                     	;# 
  1167  009D                     	;# 
  1168  009E                     	;# 
  1169  009F                     	;# 
  1170  010C                     	;# 
  1171  010D                     	;# 
  1172  010E                     	;# 
  1173  0111                     	;# 
  1174  0112                     	;# 
  1175  0113                     	;# 
  1176  0114                     	;# 
  1177  0115                     	;# 
  1178  0116                     	;# 
  1179  0117                     	;# 
  1180  0118                     	;# 
  1181  0119                     	;# 
  1182  018C                     	;# 
  1183  018D                     	;# 
  1184  018E                     	;# 
  1185  0197                     	;# 
  1186  0199                     	;# 
  1187  0199                     	;# 
  1188  0199                     	;# 
  1189  019A                     	;# 
  1190  019A                     	;# 
  1191  019A                     	;# 
  1192  019B                     	;# 
  1193  019B                     	;# 
  1194  019B                     	;# 
  1195  019B                     	;# 
  1196  019B                     	;# 
  1197  019C                     	;# 
  1198  019C                     	;# 
  1199  019C                     	;# 
  1200  019D                     	;# 
  1201  019D                     	;# 
  1202  019D                     	;# 
  1203  019E                     	;# 
  1204  019E                     	;# 
  1205  019E                     	;# 
  1206  019F                     	;# 
  1207  019F                     	;# 
  1208  019F                     	;# 
  1209  019F                     	;# 
  1210  019F                     	;# 
  1211  020C                     	;# 
  1212  020D                     	;# 
  1213  020E                     	;# 
  1214  0211                     	;# 
  1215  0211                     	;# 
  1216  0212                     	;# 
  1217  0212                     	;# 
  1218  0213                     	;# 
  1219  0213                     	;# 
  1220  0214                     	;# 
  1221  0214                     	;# 
  1222  0215                     	;# 
  1223  0215                     	;# 
  1224  0215                     	;# 
  1225  0215                     	;# 
  1226  0216                     	;# 
  1227  0216                     	;# 
  1228  0217                     	;# 
  1229  0217                     	;# 
  1230  0219                     	;# 
  1231  021A                     	;# 
  1232  021B                     	;# 
  1233  021C                     	;# 
  1234  021D                     	;# 
  1235  021D                     	;# 
  1236  021E                     	;# 
  1237  021F                     	;# 
  1238  028C                     	;# 
  1239  028D                     	;# 
  1240  028E                     	;# 
  1241  0291                     	;# 
  1242  0291                     	;# 
  1243  0292                     	;# 
  1244  0293                     	;# 
  1245  0294                     	;# 
  1246  0295                     	;# 
  1247  0295                     	;# 
  1248  0296                     	;# 
  1249  0297                     	;# 
  1250  0298                     	;# 
  1251  029F                     	;# 
  1252  030C                     	;# 
  1253  030D                     	;# 
  1254  030E                     	;# 
  1255  0311                     	;# 
  1256  0311                     	;# 
  1257  0312                     	;# 
  1258  0313                     	;# 
  1259  0314                     	;# 
  1260  0315                     	;# 
  1261  0315                     	;# 
  1262  0316                     	;# 
  1263  0317                     	;# 
  1264  0318                     	;# 
  1265  038C                     	;# 
  1266  038D                     	;# 
  1267  038E                     	;# 
  1268  0391                     	;# 
  1269  0392                     	;# 
  1270  0393                     	;# 
  1271  0394                     	;# 
  1272  0395                     	;# 
  1273  0396                     	;# 
  1274  0397                     	;# 
  1275  0398                     	;# 
  1276  0399                     	;# 
  1277  039A                     	;# 
  1278  039C                     	;# 
  1279  039D                     	;# 
  1280  039E                     	;# 
  1281  039F                     	;# 
  1282  0411                     	;# 
  1283  0411                     	;# 
  1284  0412                     	;# 
  1285  0413                     	;# 
  1286  0414                     	;# 
  1287  0415                     	;# 
  1288  0416                     	;# 
  1289  0417                     	;# 
  1290  0418                     	;# 
  1291  0418                     	;# 
  1292  0419                     	;# 
  1293  041A                     	;# 
  1294  041B                     	;# 
  1295  041C                     	;# 
  1296  041D                     	;# 
  1297  041E                     	;# 
  1298  041F                     	;# 
  1299  0498                     	;# 
  1300  0498                     	;# 
  1301  0499                     	;# 
  1302  049A                     	;# 
  1303  049B                     	;# 
  1304  049B                     	;# 
  1305  049C                     	;# 
  1306  049D                     	;# 
  1307  049E                     	;# 
  1308  049F                     	;# 
  1309  0617                     	;# 
  1310  0618                     	;# 
  1311  0619                     	;# 
  1312  0619                     	;# 
  1313  061A                     	;# 
  1314  061B                     	;# 
  1315  061C                     	;# 
  1316  061C                     	;# 
  1317  061F                     	;# 
  1318  0691                     	;# 
  1319  0692                     	;# 
  1320  0693                     	;# 
  1321  0694                     	;# 
  1322  0695                     	;# 
  1323  0696                     	;# 
  1324  0697                     	;# 
  1325  0698                     	;# 
  1326  0699                     	;# 
  1327  0711                     	;# 
  1328  0712                     	;# 
  1329  0713                     	;# 
  1330  0714                     	;# 
  1331  0715                     	;# 
  1332  0716                     	;# 
  1333  0717                     	;# 
  1334  0718                     	;# 
  1335  0719                     	;# 
  1336  0891                     	;# 
  1337  0891                     	;# 
  1338  0891                     	;# 
  1339  0891                     	;# 
  1340  0891                     	;# 
  1341  0891                     	;# 
  1342  0892                     	;# 
  1343  0892                     	;# 
  1344  0892                     	;# 
  1345  0893                     	;# 
  1346  0893                     	;# 
  1347  0893                     	;# 
  1348  0893                     	;# 
  1349  0893                     	;# 
  1350  0893                     	;# 
  1351  0894                     	;# 
  1352  0894                     	;# 
  1353  0894                     	;# 
  1354  0895                     	;# 
  1355  0895                     	;# 
  1356  0895                     	;# 
  1357  0896                     	;# 
  1358  0896                     	;# 
  1359  0896                     	;# 
  1360  089B                     	;# 
  1361  0911                     	;# 
  1362  0912                     	;# 
  1363  0913                     	;# 
  1364  0914                     	;# 
  1365  0915                     	;# 
  1366  0916                     	;# 
  1367  0918                     	;# 
  1368  0919                     	;# 
  1369  091A                     	;# 
  1370  091B                     	;# 
  1371  091C                     	;# 
  1372  091D                     	;# 
  1373  091E                     	;# 
  1374  091F                     	;# 
  1375  0E0F                     	;# 
  1376  0E10                     	;# 
  1377  0E11                     	;# 
  1378  0E12                     	;# 
  1379  0E13                     	;# 
  1380  0E14                     	;# 
  1381  0E15                     	;# 
  1382  0E16                     	;# 
  1383  0E17                     	;# 
  1384  0E18                     	;# 
  1385  0E19                     	;# 
  1386  0E1A                     	;# 
  1387  0E1B                     	;# 
  1388  0E1C                     	;# 
  1389  0E1D                     	;# 
  1390  0E1E                     	;# 
  1391  0E1F                     	;# 
  1392  0E20                     	;# 
  1393  0E21                     	;# 
  1394  0E22                     	;# 
  1395  0E24                     	;# 
  1396  0E25                     	;# 
  1397  0E28                     	;# 
  1398  0E29                     	;# 
  1399  0E2A                     	;# 
  1400  0E2B                     	;# 
  1401  0E2C                     	;# 
  1402  0E2D                     	;# 
  1403  0E2E                     	;# 
  1404  0E2F                     	;# 
  1405  0E90                     	;# 
  1406  0E91                     	;# 
  1407  0E92                     	;# 
  1408  0E94                     	;# 
  1409  0E95                     	;# 
  1410  0E9C                     	;# 
  1411  0E9D                     	;# 
  1412  0E9E                     	;# 
  1413  0E9F                     	;# 
  1414  0EA0                     	;# 
  1415  0EA1                     	;# 
  1416  0EA2                     	;# 
  1417  0EA3                     	;# 
  1418  0EA4                     	;# 
  1419  0EA5                     	;# 
  1420  0EA6                     	;# 
  1421  0EA7                     	;# 
  1422  0F0F                     	;# 
  1423  0F10                     	;# 
  1424  0F11                     	;# 
  1425  0F12                     	;# 
  1426  0F13                     	;# 
  1427  0F14                     	;# 
  1428  0F15                     	;# 
  1429  0F16                     	;# 
  1430  0F17                     	;# 
  1431  0F18                     	;# 
  1432  0F19                     	;# 
  1433  0F1A                     	;# 
  1434  0F1B                     	;# 
  1435  0F1C                     	;# 
  1436  0F1D                     	;# 
  1437  0F1E                     	;# 
  1438  0F1F                     	;# 
  1439  0F20                     	;# 
  1440  0F21                     	;# 
  1441  0F22                     	;# 
  1442  0F23                     	;# 
  1443  0F24                     	;# 
  1444  0F25                     	;# 
  1445  0F26                     	;# 
  1446  0F27                     	;# 
  1447  0F28                     	;# 
  1448  0F29                     	;# 
  1449  0F2A                     	;# 
  1450  0F2B                     	;# 
  1451  0F2C                     	;# 
  1452  0F2D                     	;# 
  1453  0F2E                     	;# 
  1454  0F2F                     	;# 
  1455  0F30                     	;# 
  1456  0F31                     	;# 
  1457  0F32                     	;# 
  1458  0F33                     	;# 
  1459  0F34                     	;# 
  1460  0F35                     	;# 
  1461  0F36                     	;# 
  1462  0F37                     	;# 
  1463  0FE4                     	;# 
  1464  0FE5                     	;# 
  1465  0FE6                     	;# 
  1466  0FE7                     	;# 
  1467  0FE8                     	;# 
  1468  0FE9                     	;# 
  1469  0FEA                     	;# 
  1470  0FEB                     	;# 
  1471  0FED                     	;# 
  1472  0FEE                     	;# 
  1473  0FEF                     	;# 
  1474  0000                     	;# 
  1475  0001                     	;# 
  1476  0002                     	;# 
  1477  0003                     	;# 
  1478  0004                     	;# 
  1479  0005                     	;# 
  1480  0006                     	;# 
  1481  0007                     	;# 
  1482  0008                     	;# 
  1483  0009                     	;# 
  1484  000A                     	;# 
  1485  000B                     	;# 
  1486  000C                     	;# 
  1487  000D                     	;# 
  1488  000E                     	;# 
  1489  0010                     	;# 
  1490  0011                     	;# 
  1491  0012                     	;# 
  1492  0013                     	;# 
  1493  0014                     	;# 
  1494  0015                     	;# 
  1495  0015                     	;# 
  1496  0016                     	;# 
  1497  0016                     	;# 
  1498  0017                     	;# 
  1499  0018                     	;# 
  1500  0019                     	;# 
  1501  0019                     	;# 
  1502  001A                     	;# 
  1503  001B                     	;# 
  1504  001C                     	;# 
  1505  001D                     	;# 
  1506  001E                     	;# 
  1507  001F                     	;# 
  1508  008C                     	;# 
  1509  008D                     	;# 
  1510  008E                     	;# 
  1511  0090                     	;# 
  1512  0091                     	;# 
  1513  0092                     	;# 
  1514  0093                     	;# 
  1515  0094                     	;# 
  1516  0097                     	;# 
  1517  009B                     	;# 
  1518  009B                     	;# 
  1519  009C                     	;# 
  1520  009D                     	;# 
  1521  009E                     	;# 
  1522  009F                     	;# 
  1523  010C                     	;# 
  1524  010D                     	;# 
  1525  010E                     	;# 
  1526  0111                     	;# 
  1527  0112                     	;# 
  1528  0113                     	;# 
  1529  0114                     	;# 
  1530  0115                     	;# 
  1531  0116                     	;# 
  1532  0117                     	;# 
  1533  0118                     	;# 
  1534  0119                     	;# 
  1535  018C                     	;# 
  1536  018D                     	;# 
  1537  018E                     	;# 
  1538  0197                     	;# 
  1539  0199                     	;# 
  1540  0199                     	;# 
  1541  0199                     	;# 
  1542  019A                     	;# 
  1543  019A                     	;# 
  1544  019A                     	;# 
  1545  019B                     	;# 
  1546  019B                     	;# 
  1547  019B                     	;# 
  1548  019B                     	;# 
  1549  019B                     	;# 
  1550  019C                     	;# 
  1551  019C                     	;# 
  1552  019C                     	;# 
  1553  019D                     	;# 
  1554  019D                     	;# 
  1555  019D                     	;# 
  1556  019E                     	;# 
  1557  019E                     	;# 
  1558  019E                     	;# 
  1559  019F                     	;# 
  1560  019F                     	;# 
  1561  019F                     	;# 
  1562  019F                     	;# 
  1563  019F                     	;# 
  1564  020C                     	;# 
  1565  020D                     	;# 
  1566  020E                     	;# 
  1567  0211                     	;# 
  1568  0211                     	;# 
  1569  0212                     	;# 
  1570  0212                     	;# 
  1571  0213                     	;# 
  1572  0213                     	;# 
  1573  0214                     	;# 
  1574  0214                     	;# 
  1575  0215                     	;# 
  1576  0215                     	;# 
  1577  0215                     	;# 
  1578  0215                     	;# 
  1579  0216                     	;# 
  1580  0216                     	;# 
  1581  0217                     	;# 
  1582  0217                     	;# 
  1583  0219                     	;# 
  1584  021A                     	;# 
  1585  021B                     	;# 
  1586  021C                     	;# 
  1587  021D                     	;# 
  1588  021D                     	;# 
  1589  021E                     	;# 
  1590  021F                     	;# 
  1591  028C                     	;# 
  1592  028D                     	;# 
  1593  028E                     	;# 
  1594  0291                     	;# 
  1595  0291                     	;# 
  1596  0292                     	;# 
  1597  0293                     	;# 
  1598  0294                     	;# 
  1599  0295                     	;# 
  1600  0295                     	;# 
  1601  0296                     	;# 
  1602  0297                     	;# 
  1603  0298                     	;# 
  1604  029F                     	;# 
  1605  030C                     	;# 
  1606  030D                     	;# 
  1607  030E                     	;# 
  1608  0311                     	;# 
  1609  0311                     	;# 
  1610  0312                     	;# 
  1611  0313                     	;# 
  1612  0314                     	;# 
  1613  0315                     	;# 
  1614  0315                     	;# 
  1615  0316                     	;# 
  1616  0317                     	;# 
  1617  0318                     	;# 
  1618  038C                     	;# 
  1619  038D                     	;# 
  1620  038E                     	;# 
  1621  0391                     	;# 
  1622  0392                     	;# 
  1623  0393                     	;# 
  1624  0394                     	;# 
  1625  0395                     	;# 
  1626  0396                     	;# 
  1627  0397                     	;# 
  1628  0398                     	;# 
  1629  0399                     	;# 
  1630  039A                     	;# 
  1631  039C                     	;# 
  1632  039D                     	;# 
  1633  039E                     	;# 
  1634  039F                     	;# 
  1635  0411                     	;# 
  1636  0411                     	;# 
  1637  0412                     	;# 
  1638  0413                     	;# 
  1639  0414                     	;# 
  1640  0415                     	;# 
  1641  0416                     	;# 
  1642  0417                     	;# 
  1643  0418                     	;# 
  1644  0418                     	;# 
  1645  0419                     	;# 
  1646  041A                     	;# 
  1647  041B                     	;# 
  1648  041C                     	;# 
  1649  041D                     	;# 
  1650  041E                     	;# 
  1651  041F                     	;# 
  1652  0498                     	;# 
  1653  0498                     	;# 
  1654  0499                     	;# 
  1655  049A                     	;# 
  1656  049B                     	;# 
  1657  049B                     	;# 
  1658  049C                     	;# 
  1659  049D                     	;# 
  1660  049E                     	;# 
  1661  049F                     	;# 
  1662  0617                     	;# 
  1663  0618                     	;# 
  1664  0619                     	;# 
  1665  0619                     	;# 
  1666  061A                     	;# 
  1667  061B                     	;# 
  1668  061C                     	;# 
  1669  061C                     	;# 
  1670  061F                     	;# 
  1671  0691                     	;# 
  1672  0692                     	;# 
  1673  0693                     	;# 
  1674  0694                     	;# 
  1675  0695                     	;# 
  1676  0696                     	;# 
  1677  0697                     	;# 
  1678  0698                     	;# 
  1679  0699                     	;# 
  1680  0711                     	;# 
  1681  0712                     	;# 
  1682  0713                     	;# 
  1683  0714                     	;# 
  1684  0715                     	;# 
  1685  0716                     	;# 
  1686  0717                     	;# 
  1687  0718                     	;# 
  1688  0719                     	;# 
  1689  0891                     	;# 
  1690  0891                     	;# 
  1691  0891                     	;# 
  1692  0891                     	;# 
  1693  0891                     	;# 
  1694  0891                     	;# 
  1695  0892                     	;# 
  1696  0892                     	;# 
  1697  0892                     	;# 
  1698  0893                     	;# 
  1699  0893                     	;# 
  1700  0893                     	;# 
  1701  0893                     	;# 
  1702  0893                     	;# 
  1703  0893                     	;# 
  1704  0894                     	;# 
  1705  0894                     	;# 
  1706  0894                     	;# 
  1707  0895                     	;# 
  1708  0895                     	;# 
  1709  0895                     	;# 
  1710  0896                     	;# 
  1711  0896                     	;# 
  1712  0896                     	;# 
  1713  089B                     	;# 
  1714  0911                     	;# 
  1715  0912                     	;# 
  1716  0913                     	;# 
  1717  0914                     	;# 
  1718  0915                     	;# 
  1719  0916                     	;# 
  1720  0918                     	;# 
  1721  0919                     	;# 
  1722  091A                     	;# 
  1723  091B                     	;# 
  1724  091C                     	;# 
  1725  091D                     	;# 
  1726  091E                     	;# 
  1727  091F                     	;# 
  1728  0E0F                     	;# 
  1729  0E10                     	;# 
  1730  0E11                     	;# 
  1731  0E12                     	;# 
  1732  0E13                     	;# 
  1733  0E14                     	;# 
  1734  0E15                     	;# 
  1735  0E16                     	;# 
  1736  0E17                     	;# 
  1737  0E18                     	;# 
  1738  0E19                     	;# 
  1739  0E1A                     	;# 
  1740  0E1B                     	;# 
  1741  0E1C                     	;# 
  1742  0E1D                     	;# 
  1743  0E1E                     	;# 
  1744  0E1F                     	;# 
  1745  0E20                     	;# 
  1746  0E21                     	;# 
  1747  0E22                     	;# 
  1748  0E24                     	;# 
  1749  0E25                     	;# 
  1750  0E28                     	;# 
  1751  0E29                     	;# 
  1752  0E2A                     	;# 
  1753  0E2B                     	;# 
  1754  0E2C                     	;# 
  1755  0E2D                     	;# 
  1756  0E2E                     	;# 
  1757  0E2F                     	;# 
  1758  0E90                     	;# 
  1759  0E91                     	;# 
  1760  0E92                     	;# 
  1761  0E94                     	;# 
  1762  0E95                     	;# 
  1763  0E9C                     	;# 
  1764  0E9D                     	;# 
  1765  0E9E                     	;# 
  1766  0E9F                     	;# 
  1767  0EA0                     	;# 
  1768  0EA1                     	;# 
  1769  0EA2                     	;# 
  1770  0EA3                     	;# 
  1771  0EA4                     	;# 
  1772  0EA5                     	;# 
  1773  0EA6                     	;# 
  1774  0EA7                     	;# 
  1775  0F0F                     	;# 
  1776  0F10                     	;# 
  1777  0F11                     	;# 
  1778  0F12                     	;# 
  1779  0F13                     	;# 
  1780  0F14                     	;# 
  1781  0F15                     	;# 
  1782  0F16                     	;# 
  1783  0F17                     	;# 
  1784  0F18                     	;# 
  1785  0F19                     	;# 
  1786  0F1A                     	;# 
  1787  0F1B                     	;# 
  1788  0F1C                     	;# 
  1789  0F1D                     	;# 
  1790  0F1E                     	;# 
  1791  0F1F                     	;# 
  1792  0F20                     	;# 
  1793  0F21                     	;# 
  1794  0F22                     	;# 
  1795  0F23                     	;# 
  1796  0F24                     	;# 
  1797  0F25                     	;# 
  1798  0F26                     	;# 
  1799  0F27                     	;# 
  1800  0F28                     	;# 
  1801  0F29                     	;# 
  1802  0F2A                     	;# 
  1803  0F2B                     	;# 
  1804  0F2C                     	;# 
  1805  0F2D                     	;# 
  1806  0F2E                     	;# 
  1807  0F2F                     	;# 
  1808  0F30                     	;# 
  1809  0F31                     	;# 
  1810  0F32                     	;# 
  1811  0F33                     	;# 
  1812  0F34                     	;# 
  1813  0F35                     	;# 
  1814  0F36                     	;# 
  1815  0F37                     	;# 
  1816  0FE4                     	;# 
  1817  0FE5                     	;# 
  1818  0FE6                     	;# 
  1819  0FE7                     	;# 
  1820  0FE8                     	;# 
  1821  0FE9                     	;# 
  1822  0FEA                     	;# 
  1823  0FEB                     	;# 
  1824  0FED                     	;# 
  1825  0FEE                     	;# 
  1826  0FEF                     	;# 
  1827                           
  1828                           	psect	idataBANK0
  1829  05F5                     __pidataBANK0:
  1830                           
  1831                           ;initializer for _step
  1832  05F5  3401               	retlw	1
  1833                           
  1834                           ;initializer for _red
  1835  05F6  34FF               	retlw	255
  1836                           
  1837                           	psect	stringtext1
  1838  0800                     __pstringtext1:
  1839  0800                     _NumberOfLEDs:
  1840  0800  343C               	retlw	60
  1841  0801  3400               	retlw	0
  1842  0802                     __end_of_NumberOfLEDs:
  1843  005F                     _GIE	set	95
  1844  008E                     _TRISC	set	142
  1845  008D                     _TRISB	set	141
  1846  008C                     _TRISA	set	140
  1847  0097                     _WDTCON	set	151
  1848  010E                     _LATC	set	270
  1849  010D                     _LATB	set	269
  1850  010C                     _LATA	set	268
  1851  018C                     _ANSELA	set	396
  1852  018D                     _ANSELB	set	397
  1853  018E                     _ANSELC	set	398
  1854  0214                     _SSP1STATbits	set	532
  1855  0211                     _SSP1BUF	set	529
  1856  0215                     _SSP1CON1bits	set	533
  1857  0212                     _SSP1ADD	set	530
  1858  0215                     _SSP1CON1	set	533
  1859  0214                     _SSP1STAT	set	532
  1860  020E                     _WPUC	set	526
  1861  020C                     _WPUA	set	524
  1862  020D                     _WPUB	set	525
  1863  028E                     _ODCONC	set	654
  1864  028D                     _ODCONB	set	653
  1865  028C                     _ODCONA	set	652
  1866  091E                     _OSCTUNE	set	2334
  1867  091F                     _OSCFRQ	set	2335
  1868  091D                     _OSCEN	set	2333
  1869  091B                     _OSCCON3	set	2331
  1870  0919                     _OSCCON1	set	2329
  1871  0E20                     _SSP1CLKPPSbits	set	3616
  1872  0E21                     _SSP1DATPPSbits	set	3617
  1873  0E0F                     _PPSLOCKbits	set	3599
  1874  0E0F                     _PPSLOCK	set	3599
  1875  0E9E                     _RB6PPSbits	set	3742
  1876  0E9C                     _RB4PPSbits	set	3740
  1877                           
  1878                           	psect	cinit
  1879  07EC                     start_initialization:	
  1880                           ; #config settings
  1881                           
  1882  07EC                     __initialization:
  1883                           
  1884                           ; Initialize objects allocated to BANK0
  1885  07EC  3185  25F5  3187   	fcall	__pidataBANK0	;fetch initializer
  1886  07EF  00B1               	movwf	__pdataBANK0& (0+127)
  1887  07F0  3185  25F6  3187   	fcall	__pidataBANK0+1	;fetch initializer
  1888  07F3  00B2               	movwf	(__pdataBANK0+1)& (0+127)
  1889                           
  1890                           ; Clear objects allocated to BANK0
  1891  07F4  01A0               	clrf	__pbssBANK0& (0+127)
  1892  07F5  01A1               	clrf	(__pbssBANK0+1)& (0+127)
  1893  07F6  01A2               	clrf	(__pbssBANK0+2)& (0+127)
  1894  07F7  01A3               	clrf	(__pbssBANK0+3)& (0+127)
  1895  07F8  01A4               	clrf	(__pbssBANK0+4)& (0+127)
  1896  07F9  01A5               	clrf	(__pbssBANK0+5)& (0+127)
  1897  07FA  01A6               	clrf	(__pbssBANK0+6)& (0+127)
  1898  07FB  01A7               	clrf	(__pbssBANK0+7)& (0+127)
  1899  07FC  01A8               	clrf	(__pbssBANK0+8)& (0+127)
  1900  07FD                     end_of_initialization:	
  1901                           ;End of C runtime variable initialization code
  1902                           
  1903  07FD                     __end_of__initialization:
  1904  07FD  0020               	movlb	0
  1905  07FE  3187  2F0C         	ljmp	_main	;jump to C main() function
  1906                           
  1907                           	psect	bssBANK0
  1908  0020                     __pbssBANK0:
  1909  0020                     _led_run:
  1910  0020                     	ds	1
  1911  0021                     _direction:
  1912  0021                     	ds	1
  1913  0022                     _change_color:
  1914  0022                     	ds	1
  1915  0023                     _green:
  1916  0023                     	ds	1
  1917  0024                     _blue:
  1918  0024                     	ds	1
  1919  0025                     _seed:
  1920  0025                     	ds	4
  1921                           
  1922                           	psect	dataBANK0
  1923  0031                     __pdataBANK0:
  1924  0031                     _step:
  1925  0031                     	ds	1
  1926  0032                     _red:
  1927  0032                     	ds	1
  1928                           
  1929                           	psect	cstackCOMMON
  1930  0070                     __pcstackCOMMON:
  1931  0070                     ?_PIN_MANAGER_Initialize:
  1932  0070                     ??_PIN_MANAGER_Initialize:	
  1933                           ; 1 bytes @ 0x0
  1934                           
  1935  0070                     ?_OSCILLATOR_Initialize:	
  1936                           ; 1 bytes @ 0x0
  1937                           
  1938  0070                     ??_OSCILLATOR_Initialize:	
  1939                           ; 1 bytes @ 0x0
  1940                           
  1941  0070                     ?_WDT_Initialize:	
  1942                           ; 1 bytes @ 0x0
  1943                           
  1944  0070                     ??_WDT_Initialize:	
  1945                           ; 1 bytes @ 0x0
  1946                           
  1947  0070                     ?_SPI1_Initialize:	
  1948                           ; 1 bytes @ 0x0
  1949                           
  1950  0070                     ??_SPI1_Initialize:	
  1951                           ; 1 bytes @ 0x0
  1952                           
  1953  0070                     ?_SYSTEM_Initialize:	
  1954                           ; 1 bytes @ 0x0
  1955                           
  1956  0070                     ?_SPI1_Exchange8bit:	
  1957                           ; 1 bytes @ 0x0
  1958                           
  1959  0070                     ??_SPI1_Exchange8bit:	
  1960                           ; 1 bytes @ 0x0
  1961                           
  1962  0070                     ?_Send_LED_StartFrame:	
  1963                           ; 1 bytes @ 0x0
  1964                           
  1965  0070                     ?_Send_LED_EndFrame:	
  1966                           ; 1 bytes @ 0x0
  1967                           
  1968  0070                     ?_main:	
  1969                           ; 1 bytes @ 0x0
  1970                           
  1971  0070                     ?___lmul:	
  1972                           ; 1 bytes @ 0x0
  1973                           
  1974  0070                     PIN_MANAGER_Initialize@state:	
  1975                           ; 4 bytes @ 0x0
  1976                           
  1977  0070                     SPI1_Exchange8bit@data:	
  1978                           ; 1 bytes @ 0x0
  1979                           
  1980  0070                     ___lmul@multiplier:	
  1981                           ; 1 bytes @ 0x0
  1982                           
  1983                           
  1984                           ; 4 bytes @ 0x0
  1985  0070                     	ds	1
  1986  0071                     ??_SYSTEM_Initialize:
  1987  0071                     ?_Send_LED_Frame:	
  1988                           ; 1 bytes @ 0x1
  1989                           
  1990  0071                     ??_Send_LED_StartFrame:	
  1991                           ; 1 bytes @ 0x1
  1992                           
  1993  0071                     ??_Send_LED_EndFrame:	
  1994                           ; 1 bytes @ 0x1
  1995                           
  1996  0071                     Send_LED_Frame@blue:	
  1997                           ; 1 bytes @ 0x1
  1998                           
  1999                           
  2000                           ; 1 bytes @ 0x1
  2001  0071                     	ds	1
  2002  0072                     Send_LED_Frame@green:
  2003  0072                     Send_LED_StartFrame@i:	
  2004                           ; 1 bytes @ 0x2
  2005                           
  2006  0072                     Send_LED_EndFrame@i:	
  2007                           ; 2 bytes @ 0x2
  2008                           
  2009                           
  2010                           ; 2 bytes @ 0x2
  2011  0072                     	ds	1
  2012  0073                     Send_LED_Frame@red:
  2013                           
  2014                           ; 1 bytes @ 0x3
  2015  0073                     	ds	1
  2016  0074                     ??_Send_LED_Frame:
  2017  0074                     Send_LED_Frame@intensity:	
  2018                           ; 1 bytes @ 0x4
  2019                           
  2020  0074                     ___lmul@multiplicand:	
  2021                           ; 1 bytes @ 0x4
  2022                           
  2023                           
  2024                           ; 4 bytes @ 0x4
  2025  0074                     	ds	4
  2026  0078                     ??___lmul:
  2027  0078                     ___lmul@product:	
  2028                           ; 1 bytes @ 0x8
  2029                           
  2030                           
  2031                           ; 4 bytes @ 0x8
  2032  0078                     	ds	4
  2033  007C                     ?_rand:
  2034                           
  2035                           ; 2 bytes @ 0xC
  2036  007C                     	ds	2
  2037                           
  2038                           	psect	cstackBANK0
  2039  0029                     __pcstackBANK0:
  2040  0029                     ??_rand:
  2041                           
  2042                           ; 1 bytes @ 0x0
  2043  0029                     	ds	4
  2044  002D                     ??_main:
  2045                           
  2046                           ; 1 bytes @ 0x4
  2047  002D                     	ds	3
  2048  0030                     main@led:
  2049                           
  2050                           ; 1 bytes @ 0x7
  2051  0030                     	ds	1
  2052                           
  2053                           	psect	maintext
  2054  070C                     __pmaintext:	
  2055 ;;
  2056 ;;Main: autosize = 0, tempsize = 3, incstack = 0, save=0
  2057 ;;
  2058 ;; *************** function _main *****************
  2059 ;; Defined at:
  2060 ;;		line 86 in file "main.c"
  2061 ;; Parameters:    Size  Location     Type
  2062 ;;		None
  2063 ;; Auto vars:     Size  Location     Type
  2064 ;;  led             1    7[BANK0 ] unsigned char 
  2065 ;; Return value:  Size  Location     Type
  2066 ;;                  1    wreg      void 
  2067 ;; Registers used:
  2068 ;;		wreg, fsr0l, fsr0h, status,2, status,0, pclath, cstack
  2069 ;; Tracked objects:
  2070 ;;		On entry : B1F/0
  2071 ;;		On exit  : 0/0
  2072 ;;		Unchanged: 0/0
  2073 ;; Data sizes:     COMMON   BANK0   BANK1   BANK2   BANK3   BANK4   BANK5   BANK6   BANK7   BANK8   BANK9  BANK10  BANK1
      +1  BANK12  BANK13  BANK14  BANK15  BANK16  BANK17  BANK18  BANK19  BANK20  BANK21  BANK22  BANK23  BANK24  BANK25
  2074 ;;      Params:         0       0       0       0       0       0       0       0       0       0       0       0       
      +0       0       0       0       0       0       0       0       0       0       0       0       0       0       0
  2075 ;;      Locals:         0       1       0       0       0       0       0       0       0       0       0       0       
      +0       0       0       0       0       0       0       0       0       0       0       0       0       0       0
  2076 ;;      Temps:          0       3       0       0       0       0       0       0       0       0       0       0       
      +0       0       0       0       0       0       0       0       0       0       0       0       0       0       0
  2077 ;;      Totals:         0       4       0       0       0       0       0       0       0       0       0       0       
      +0       0       0       0       0       0       0       0       0       0       0       0       0       0       0
  2078 ;;Total ram usage:        4 bytes
  2079 ;; Hardware stack levels required when called: 2
  2080 ;; This function calls:
  2081 ;;		_SYSTEM_Initialize
  2082 ;;		_Send_LED_EndFrame
  2083 ;;		_Send_LED_Frame
  2084 ;;		_Send_LED_StartFrame
  2085 ;;		_rand
  2086 ;; This function is called by:
  2087 ;;		Startup code after reset
  2088 ;; This function uses a non-reentrant model
  2089 ;;
  2090                           
  2091  070C                     _main:	
  2092                           ;psect for function _main
  2093                           
  2094  070C                     l1215:	
  2095                           ;incstack = 0
  2096                           ; Regs used in _main: [wreg-fsr0h+status,2+status,0+pclath+cstack]
  2097                           
  2098                           
  2099                           ;main.c: 88:     SYSTEM_Initialize();
  2100  070C  3186  2614  3187   	fcall	_SYSTEM_Initialize
  2101  070F  2F28               	goto	l1229
  2102  0710                     l1217:
  2103  0710  303B               	movlw	59
  2104  0711  0220               	subwf	_led_run,w
  2105  0712  1803               	skipnc
  2106  0713  2F15               	goto	u391
  2107  0714  2F16               	goto	u390
  2108  0715                     u391:
  2109  0715  2F1B               	goto	l169
  2110  0716                     u390:
  2111  0716                     l1219:
  2112                           
  2113                           ;main.c: 109:                     led_run++;
  2114  0716  3001               	movlw	1
  2115  0717  00AD               	movwf	??_main
  2116  0718  082D               	movf	??_main,w
  2117  0719  07A0               	addwf	_led_run,f
  2118                           
  2119                           ;main.c: 110:                 } else {
  2120  071A  2F88               	goto	l1267
  2121  071B                     l169:
  2122                           
  2123                           ;main.c: 111:                     direction = DOWN;
  2124  071B  01A1               	clrf	_direction
  2125  071C  0AA1               	incf	_direction,f
  2126  071D  2F88               	goto	l1267
  2127  071E                     l1221:
  2128  071E  0820               	movf	_led_run,w
  2129  071F  1903               	btfsc	3,2
  2130  0720  2F22               	goto	u401
  2131  0721  2F23               	goto	u400
  2132  0722                     u401:
  2133  0722  2F26               	goto	l1225
  2134  0723                     u400:
  2135  0723                     l1223:
  2136                           
  2137                           ;main.c: 115:                     led_run--;
  2138  0723  3001               	movlw	1
  2139  0724  02A0               	subwf	_led_run,f
  2140                           
  2141                           ;main.c: 116:                 } else {
  2142  0725  2F88               	goto	l1267
  2143  0726                     l1225:
  2144                           
  2145                           ;main.c: 117:                     direction = UP;
  2146  0726  01A1               	clrf	_direction
  2147  0727  2F88               	goto	l1267
  2148  0728                     l1229:
  2149  0728  0020               	movlb	0	; select bank0
  2150  0729  0821               	movf	_direction,w
  2151  072A  00AD               	movwf	??_main
  2152  072B  01AE               	clrf	??_main+1
  2153                           
  2154                           ; Switch on 2 bytes has been partitioned into a top level switch of size 1, and 1 sub-sw
      +                          itches
  2155                           ; Switch size 1, requested type "simple"
  2156                           ; Number of cases is 1, Range of values is 0 to 0
  2157                           ; switch strategies available:
  2158                           ; Name         Instructions Cycles
  2159                           ; simple_byte            4     3 (average)
  2160                           ; direct_byte            8     6 (fixed)
  2161                           ; jumptable            260     6 (fixed)
  2162                           ;	Chosen strategy is simple_byte
  2163  072C  082E               	movf	??_main+1,w
  2164  072D  3A00               	xorlw	0	; case 0
  2165  072E  1903               	skipnz
  2166  072F  2F31               	goto	l1339
  2167  0730  2F88               	goto	l1267
  2168  0731                     l1339:
  2169                           
  2170                           ; Switch size 1, requested type "simple"
  2171                           ; Number of cases is 2, Range of values is 0 to 1
  2172                           ; switch strategies available:
  2173                           ; Name         Instructions Cycles
  2174                           ; simple_byte            7     4 (average)
  2175                           ; direct_byte           10     6 (fixed)
  2176                           ; jumptable            260     6 (fixed)
  2177                           ;	Chosen strategy is simple_byte
  2178  0731  082D               	movf	??_main,w
  2179  0732  3A00               	xorlw	0	; case 0
  2180  0733  1903               	skipnz
  2181  0734  2F10               	goto	l1217
  2182  0735  3A01               	xorlw	1	; case 1
  2183  0736  1903               	skipnz
  2184  0737  2F1E               	goto	l1221
  2185  0738  2F88               	goto	l1267
  2186  0739                     l1231:
  2187  0739  0A23               	incf	_green,w
  2188  073A  1903               	btfsc	3,2
  2189  073B  2F3D               	goto	u411
  2190  073C  2F3E               	goto	u410
  2191  073D                     u411:
  2192  073D  2F43               	goto	l177
  2193  073E                     u410:
  2194  073E                     l1233:
  2195                           
  2196                           ;main.c: 124:                     green += step;
  2197  073E  3001               	movlw	1
  2198  073F  00AD               	movwf	??_main
  2199  0740  082D               	movf	??_main,w
  2200  0741  07A3               	addwf	_green,f
  2201                           
  2202                           ;main.c: 125:                 } else {
  2203  0742  2FA4               	goto	l1269
  2204  0743                     l177:
  2205                           
  2206                           ;main.c: 126:                     change_color = RED_DOWN;
  2207  0743  01A2               	clrf	_change_color
  2208  0744  0AA2               	incf	_change_color,f
  2209  0745  2FA4               	goto	l1269
  2210  0746                     l1235:
  2211  0746  0832               	movf	_red,w
  2212  0747  1903               	btfsc	3,2
  2213  0748  2F4A               	goto	u421
  2214  0749  2F4B               	goto	u420
  2215  074A                     u421:
  2216  074A  2F4E               	goto	l1239
  2217  074B                     u420:
  2218  074B                     l1237:
  2219                           
  2220                           ;main.c: 130:                     red -= step;
  2221  074B  3001               	movlw	1
  2222  074C  02B2               	subwf	_red,f
  2223                           
  2224                           ;main.c: 131:                 } else {
  2225  074D  2FA4               	goto	l1269
  2226  074E                     l1239:
  2227                           
  2228                           ;main.c: 132:                     change_color = BLUE_UP;
  2229  074E  3002               	movlw	2
  2230  074F  00AD               	movwf	??_main
  2231  0750  082D               	movf	??_main,w
  2232  0751  00A2               	movwf	_change_color
  2233  0752  2FA4               	goto	l1269
  2234  0753                     l1241:
  2235  0753  0A24               	incf	_blue,w
  2236  0754  1903               	btfsc	3,2
  2237  0755  2F57               	goto	u431
  2238  0756  2F58               	goto	u430
  2239  0757                     u431:
  2240  0757  2F5D               	goto	l1245
  2241  0758                     u430:
  2242  0758                     l1243:
  2243                           
  2244                           ;main.c: 136:                     blue += step;
  2245  0758  3001               	movlw	1
  2246  0759  00AD               	movwf	??_main
  2247  075A  082D               	movf	??_main,w
  2248  075B  07A4               	addwf	_blue,f
  2249                           
  2250                           ;main.c: 137:                 } else {
  2251  075C  2FA4               	goto	l1269
  2252  075D                     l1245:
  2253                           
  2254                           ;main.c: 138:                     change_color = GREEN_DOWN;
  2255  075D  3003               	movlw	3
  2256  075E  00AD               	movwf	??_main
  2257  075F  082D               	movf	??_main,w
  2258  0760  00A2               	movwf	_change_color
  2259  0761  2FA4               	goto	l1269
  2260  0762                     l1247:
  2261  0762  0823               	movf	_green,w
  2262  0763  1903               	btfsc	3,2
  2263  0764  2F66               	goto	u441
  2264  0765  2F67               	goto	u440
  2265  0766                     u441:
  2266  0766  2F6A               	goto	l1251
  2267  0767                     u440:
  2268  0767                     l1249:
  2269                           
  2270                           ;main.c: 142:                     green -= step;
  2271  0767  3001               	movlw	1
  2272  0768  02A3               	subwf	_green,f
  2273                           
  2274                           ;main.c: 143:                 } else {
  2275  0769  2FA4               	goto	l1269
  2276  076A                     l1251:
  2277                           
  2278                           ;main.c: 144:                     change_color = RED_UP;
  2279  076A  3004               	movlw	4
  2280  076B  00AD               	movwf	??_main
  2281  076C  082D               	movf	??_main,w
  2282  076D  00A2               	movwf	_change_color
  2283  076E  2FA4               	goto	l1269
  2284  076F                     l1253:
  2285  076F  0A32               	incf	_red,w
  2286  0770  1903               	btfsc	3,2
  2287  0771  2F73               	goto	u451
  2288  0772  2F74               	goto	u450
  2289  0773                     u451:
  2290  0773  2F79               	goto	l1257
  2291  0774                     u450:
  2292  0774                     l1255:
  2293                           
  2294                           ;main.c: 148:                     red += step;
  2295  0774  3001               	movlw	1
  2296  0775  00AD               	movwf	??_main
  2297  0776  082D               	movf	??_main,w
  2298  0777  07B2               	addwf	_red,f
  2299                           
  2300                           ;main.c: 149:                 } else {
  2301  0778  2FA4               	goto	l1269
  2302  0779                     l1257:
  2303                           
  2304                           ;main.c: 150:                     change_color = BLUE_DOWN;
  2305  0779  3005               	movlw	5
  2306  077A  00AD               	movwf	??_main
  2307  077B  082D               	movf	??_main,w
  2308  077C  00A2               	movwf	_change_color
  2309  077D  2FA4               	goto	l1269
  2310  077E                     l1259:
  2311  077E  0824               	movf	_blue,w
  2312  077F  1903               	btfsc	3,2
  2313  0780  2F82               	goto	u461
  2314  0781  2F83               	goto	u460
  2315  0782                     u461:
  2316  0782  2F86               	goto	l1263
  2317  0783                     u460:
  2318  0783                     l1261:
  2319                           
  2320                           ;main.c: 154:                     blue -= step;
  2321  0783  3001               	movlw	1
  2322  0784  02A4               	subwf	_blue,f
  2323                           
  2324                           ;main.c: 155:                 } else {
  2325  0785  2FA4               	goto	l1269
  2326  0786                     l1263:
  2327                           
  2328                           ;main.c: 156:                     change_color = GREEN_UP;
  2329  0786  01A2               	clrf	_change_color
  2330  0787  2FA4               	goto	l1269
  2331  0788                     l1267:
  2332  0788  0822               	movf	_change_color,w
  2333  0789  00AD               	movwf	??_main
  2334  078A  01AE               	clrf	??_main+1
  2335                           
  2336                           ; Switch on 2 bytes has been partitioned into a top level switch of size 1, and 1 sub-sw
      +                          itches
  2337                           ; Switch size 1, requested type "simple"
  2338                           ; Number of cases is 1, Range of values is 0 to 0
  2339                           ; switch strategies available:
  2340                           ; Name         Instructions Cycles
  2341                           ; simple_byte            4     3 (average)
  2342                           ; direct_byte            8     6 (fixed)
  2343                           ; jumptable            260     6 (fixed)
  2344                           ;	Chosen strategy is simple_byte
  2345  078B  082E               	movf	??_main+1,w
  2346  078C  3A00               	xorlw	0	; case 0
  2347  078D  1903               	skipnz
  2348  078E  2F90               	goto	l1341
  2349  078F  2FA4               	goto	l1269
  2350  0790                     l1341:
  2351                           
  2352                           ; Switch size 1, requested type "simple"
  2353                           ; Number of cases is 6, Range of values is 0 to 5
  2354                           ; switch strategies available:
  2355                           ; Name         Instructions Cycles
  2356                           ; direct_byte           18     6 (fixed)
  2357                           ; simple_byte           19    10 (average)
  2358                           ; jumptable            260     6 (fixed)
  2359                           ;	Chosen strategy is simple_byte
  2360  0790  082D               	movf	??_main,w
  2361  0791  3A00               	xorlw	0	; case 0
  2362  0792  1903               	skipnz
  2363  0793  2F39               	goto	l1231
  2364  0794  3A01               	xorlw	1	; case 1
  2365  0795  1903               	skipnz
  2366  0796  2F46               	goto	l1235
  2367  0797  3A03               	xorlw	3	; case 2
  2368  0798  1903               	skipnz
  2369  0799  2F53               	goto	l1241
  2370  079A  3A01               	xorlw	1	; case 3
  2371  079B  1903               	skipnz
  2372  079C  2F62               	goto	l1247
  2373  079D  3A07               	xorlw	7	; case 4
  2374  079E  1903               	skipnz
  2375  079F  2F6F               	goto	l1253
  2376  07A0  3A01               	xorlw	1	; case 5
  2377  07A1  1903               	skipnz
  2378  07A2  2F7E               	goto	l1259
  2379  07A3  2FA4               	goto	l1269
  2380  07A4                     l1269:
  2381                           
  2382                           ;main.c: 162:             led_run = rand();
  2383  07A4  3186  2697  3187   	fcall	_rand
  2384  07A7  087C               	movf	?_rand,w
  2385  07A8  0020               	movlb	0	; select bank0
  2386  07A9  00AD               	movwf	??_main
  2387  07AA  082D               	movf	??_main,w
  2388  07AB  00A0               	movwf	_led_run
  2389  07AC                     l196:
  2390                           
  2391                           ;main.c: 166:         Send_LED_StartFrame();
  2392  07AC  3186  264C  3187   	fcall	_Send_LED_StartFrame
  2393  07AF                     l1271:
  2394                           
  2395                           ;main.c: 167:         for (char led = 0; led < NumberOfLEDs; led++) {
  2396  07AF  0020               	movlb	0	; select bank0
  2397  07B0  01B0               	clrf	main@led
  2398  07B1                     l1277:
  2399                           
  2400                           ;main.c: 168:             if (led == led_run) {
  2401  07B1  0830               	movf	main@led,w
  2402  07B2  0620               	xorwf	_led_run,w
  2403  07B3  1D03               	skipz
  2404  07B4  2FB6               	goto	u471
  2405  07B5  2FB7               	goto	u470
  2406  07B6                     u471:
  2407  07B6  2FC8               	goto	l1281
  2408  07B7                     u470:
  2409  07B7                     l1279:
  2410                           
  2411                           ;main.c: 169:                 Send_LED_Frame(0x05, blue, green, red);
  2412  07B7  0824               	movf	_blue,w
  2413  07B8  00AD               	movwf	??_main
  2414  07B9  082D               	movf	??_main,w
  2415  07BA  00F1               	movwf	Send_LED_Frame@blue
  2416  07BB  0823               	movf	_green,w
  2417  07BC  00AE               	movwf	??_main+1
  2418  07BD  082E               	movf	??_main+1,w
  2419  07BE  00F2               	movwf	Send_LED_Frame@green
  2420  07BF  0832               	movf	_red,w
  2421  07C0  00AF               	movwf	??_main+2
  2422  07C1  082F               	movf	??_main+2,w
  2423  07C2  00F3               	movwf	Send_LED_Frame@red
  2424  07C3  3005               	movlw	5
  2425  07C4  3186  2621  3187   	fcall	_Send_LED_Frame
  2426                           
  2427                           ;main.c: 170:             } else {
  2428  07C7  2FCF               	goto	l1283
  2429  07C8                     l1281:
  2430                           
  2431                           ;main.c: 171:                 Send_LED_Frame(0x00, 0x00, 0x00, 0x00);
  2432  07C8  01F1               	clrf	Send_LED_Frame@blue
  2433  07C9  01F2               	clrf	Send_LED_Frame@green
  2434  07CA  01F3               	clrf	Send_LED_Frame@red
  2435  07CB  3000               	movlw	0
  2436  07CC  3186  2621  3187   	fcall	_Send_LED_Frame
  2437  07CF                     l1283:
  2438                           
  2439                           ;main.c: 173:         }
  2440  07CF  3001               	movlw	1
  2441  07D0  0020               	movlb	0	; select bank0
  2442  07D1  00AD               	movwf	??_main
  2443  07D2  082D               	movf	??_main,w
  2444  07D3  07B0               	addwf	main@led,f
  2445  07D4                     l1285:
  2446  07D4  303C               	movlw	60
  2447  07D5  0230               	subwf	main@led,w
  2448  07D6  1C03               	skipc
  2449  07D7  2FD9               	goto	u481
  2450  07D8  2FDA               	goto	u480
  2451  07D9                     u481:
  2452  07D9  2FB1               	goto	l1277
  2453  07DA                     u480:
  2454  07DA                     l1287:
  2455                           
  2456                           ;main.c: 175:         Send_LED_EndFrame();
  2457  07DA  3186  2634  3187   	fcall	_Send_LED_EndFrame
  2458  07DD                     l1289:
  2459                           
  2460                           ;main.c: 176:         _delay((unsigned long)((100)*(32000000/4000.0)));
  2461  07DD  3005               	movlw	5
  2462  07DE  0020               	movlb	0	; select bank0
  2463  07DF  00AE               	movwf	??_main+1
  2464  07E0  300F               	movlw	15
  2465  07E1  00AD               	movwf	??_main
  2466  07E2  30F1               	movlw	241
  2467  07E3                     u497:
  2468  07E3  0B89               	decfsz	9,f
  2469  07E4  2FE3               	goto	u497
  2470  07E5  0BAD               	decfsz	??_main,f
  2471  07E6  2FE3               	goto	u497
  2472  07E7  0BAE               	decfsz	??_main+1,f
  2473  07E8  2FE3               	goto	u497
  2474  07E9  2F28               	goto	l1229
  2475  07EA  3180  2802         	ljmp	start
  2476  07EC                     __end_of_main:
  2477                           
  2478                           	psect	text1
  2479  0697                     __ptext1:	
  2480 ;; *************** function _rand *****************
  2481 ;; Defined at:
  2482 ;;		line 11 in file "C:\Program Files\Microchip\xc8\v2.35\pic\sources\c99\common\rand.c"
  2483 ;; Parameters:    Size  Location     Type
  2484 ;;		None
  2485 ;; Auto vars:     Size  Location     Type
  2486 ;;		None
  2487 ;; Return value:  Size  Location     Type
  2488 ;;                  2   12[COMMON] int 
  2489 ;; Registers used:
  2490 ;;		wreg, status,2, status,0, pclath, cstack
  2491 ;; Tracked objects:
  2492 ;;		On entry : 0/0
  2493 ;;		On exit  : 0/0
  2494 ;;		Unchanged: 0/0
  2495 ;; Data sizes:     COMMON   BANK0   BANK1   BANK2   BANK3   BANK4   BANK5   BANK6   BANK7   BANK8   BANK9  BANK10  BANK1
      +1  BANK12  BANK13  BANK14  BANK15  BANK16  BANK17  BANK18  BANK19  BANK20  BANK21  BANK22  BANK23  BANK24  BANK25
  2496 ;;      Params:         2       0       0       0       0       0       0       0       0       0       0       0       
      +0       0       0       0       0       0       0       0       0       0       0       0       0       0       0
  2497 ;;      Locals:         0       0       0       0       0       0       0       0       0       0       0       0       
      +0       0       0       0       0       0       0       0       0       0       0       0       0       0       0
  2498 ;;      Temps:          0       4       0       0       0       0       0       0       0       0       0       0       
      +0       0       0       0       0       0       0       0       0       0       0       0       0       0       0
  2499 ;;      Totals:         2       4       0       0       0       0       0       0       0       0       0       0       
      +0       0       0       0       0       0       0       0       0       0       0       0       0       0       0
  2500 ;;Total ram usage:        6 bytes
  2501 ;; Hardware stack levels used: 1
  2502 ;; Hardware stack levels required when called: 1
  2503 ;; This function calls:
  2504 ;;		___lmul
  2505 ;; This function is called by:
  2506 ;;		_main
  2507 ;; This function uses a non-reentrant model
  2508 ;;
  2509                           
  2510  0697                     _rand:	
  2511                           ;psect for function _rand
  2512                           
  2513  0697                     l1181:	
  2514                           ;incstack = 0
  2515                           ; Regs used in _rand: [wreg+status,2+status,0+pclath+cstack]
  2516                           
  2517  0697  0020               	movlb	0	; select bank0
  2518  0698  0828               	movf	_seed+3,w
  2519  0699  00F3               	movwf	___lmul@multiplier+3
  2520  069A  0827               	movf	_seed+2,w
  2521  069B  00F2               	movwf	___lmul@multiplier+2
  2522  069C  0826               	movf	_seed+1,w
  2523  069D  00F1               	movwf	___lmul@multiplier+1
  2524  069E  0825               	movf	_seed,w
  2525  069F  00F0               	movwf	___lmul@multiplier
  2526  06A0  304C               	movlw	76
  2527  06A1  00F7               	movwf	___lmul@multiplicand+3
  2528  06A2  3095               	movlw	149
  2529  06A3  00F6               	movwf	___lmul@multiplicand+2
  2530  06A4  307F               	movlw	127
  2531  06A5  00F5               	movwf	___lmul@multiplicand+1
  2532  06A6  302D               	movlw	45
  2533  06A7  00F4               	movwf	___lmul@multiplicand
  2534  06A8  3186  2664  3186   	fcall	___lmul
  2535  06AB  3001               	movlw	1
  2536  06AC  0770               	addwf	?___lmul,w
  2537  06AD  0020               	movlb	0	; select bank0
  2538  06AE  00A5               	movwf	_seed
  2539  06AF  3000               	movlw	0
  2540  06B0  3D71               	addwfc	?___lmul+1,w
  2541  06B1  00A6               	movwf	_seed+1
  2542  06B2  3000               	movlw	0
  2543  06B3  3D72               	addwfc	?___lmul+2,w
  2544  06B4  00A7               	movwf	_seed+2
  2545  06B5  3000               	movlw	0
  2546  06B6  3D73               	addwfc	?___lmul+3,w
  2547  06B7  00A8               	movwf	_seed+3
  2548  06B8                     l1183:
  2549  06B8  0825               	movf	_seed,w
  2550  06B9  00A9               	movwf	??_rand
  2551  06BA  0826               	movf	_seed+1,w
  2552  06BB  00AA               	movwf	??_rand+1
  2553  06BC  0827               	movf	_seed+2,w
  2554  06BD  00AB               	movwf	??_rand+2
  2555  06BE  0828               	movf	_seed+3,w
  2556  06BF  00AC               	movwf	??_rand+3
  2557  06C0  3011               	movlw	17
  2558  06C1                     u325:
  2559  06C1  36AC               	lsrf	??_rand+3,f
  2560  06C2  0CAB               	rrf	??_rand+2,f
  2561  06C3  0CAA               	rrf	??_rand+1,f
  2562  06C4  0CA9               	rrf	??_rand,f
  2563  06C5                     u320:
  2564  06C5  0B89               	decfsz	9,f
  2565  06C6  2EC1               	goto	u325
  2566  06C7  082A               	movf	??_rand+1,w
  2567  06C8  00FD               	movwf	?_rand+1
  2568  06C9  0829               	movf	??_rand,w
  2569  06CA  00FC               	movwf	?_rand
  2570  06CB                     l819:
  2571  06CB  0008               	return
  2572  06CC                     __end_of_rand:
  2573                           
  2574                           	psect	text2
  2575  0664                     __ptext2:	
  2576 ;; *************** function ___lmul *****************
  2577 ;; Defined at:
  2578 ;;		line 15 in file "C:\Program Files\Microchip\xc8\v2.35\pic\sources\c99\common\Umul32.c"
  2579 ;; Parameters:    Size  Location     Type
  2580 ;;  multiplier      4    0[COMMON] unsigned long 
  2581 ;;  multiplicand    4    4[COMMON] unsigned long 
  2582 ;; Auto vars:     Size  Location     Type
  2583 ;;  product         4    8[COMMON] unsigned long 
  2584 ;; Return value:  Size  Location     Type
  2585 ;;                  4    0[COMMON] unsigned long 
  2586 ;; Registers used:
  2587 ;;		wreg, status,2, status,0
  2588 ;; Tracked objects:
  2589 ;;		On entry : 0/0
  2590 ;;		On exit  : 0/0
  2591 ;;		Unchanged: 0/0
  2592 ;; Data sizes:     COMMON   BANK0   BANK1   BANK2   BANK3   BANK4   BANK5   BANK6   BANK7   BANK8   BANK9  BANK10  BANK1
      +1  BANK12  BANK13  BANK14  BANK15  BANK16  BANK17  BANK18  BANK19  BANK20  BANK21  BANK22  BANK23  BANK24  BANK25
  2593 ;;      Params:         8       0       0       0       0       0       0       0       0       0       0       0       
      +0       0       0       0       0       0       0       0       0       0       0       0       0       0       0
  2594 ;;      Locals:         4       0       0       0       0       0       0       0       0       0       0       0       
      +0       0       0       0       0       0       0       0       0       0       0       0       0       0       0
  2595 ;;      Temps:          0       0       0       0       0       0       0       0       0       0       0       0       
      +0       0       0       0       0       0       0       0       0       0       0       0       0       0       0
  2596 ;;      Totals:        12       0       0       0       0       0       0       0       0       0       0       0       
      +0       0       0       0       0       0       0       0       0       0       0       0       0       0       0
  2597 ;;Total ram usage:       12 bytes
  2598 ;; Hardware stack levels used: 1
  2599 ;; This function calls:
  2600 ;;		Nothing
  2601 ;; This function is called by:
  2602 ;;		_rand
  2603 ;; This function uses a non-reentrant model
  2604 ;;
  2605                           
  2606  0664                     ___lmul:	
  2607                           ;psect for function ___lmul
  2608                           
  2609  0664                     l1139:	
  2610                           ;incstack = 0
  2611                           ; Regs used in ___lmul: [wreg+status,2+status,0]
  2612                           
  2613  0664  3000               	movlw	0
  2614  0665  00FB               	movwf	___lmul@product+3
  2615  0666  3000               	movlw	0
  2616  0667  00FA               	movwf	___lmul@product+2
  2617  0668  3000               	movlw	0
  2618  0669  00F9               	movwf	___lmul@product+1
  2619  066A  3000               	movlw	0
  2620  066B  00F8               	movwf	___lmul@product
  2621  066C                     l1141:
  2622  066C  1C70               	btfss	___lmul@multiplier,0
  2623  066D  2E6F               	goto	u261
  2624  066E  2E70               	goto	u260
  2625  066F                     u261:
  2626  066F  2E78               	goto	l1145
  2627  0670                     u260:
  2628  0670                     l1143:
  2629  0670  0874               	movf	___lmul@multiplicand,w
  2630  0671  07F8               	addwf	___lmul@product,f
  2631  0672  0875               	movf	___lmul@multiplicand+1,w
  2632  0673  3DF9               	addwfc	___lmul@product+1,f
  2633  0674  0876               	movf	___lmul@multiplicand+2,w
  2634  0675  3DFA               	addwfc	___lmul@product+2,f
  2635  0676  0877               	movf	___lmul@multiplicand+3,w
  2636  0677  3DFB               	addwfc	___lmul@product+3,f
  2637  0678                     l1145:
  2638  0678  3001               	movlw	1
  2639  0679                     u275:
  2640  0679  35F4               	lslf	___lmul@multiplicand,f
  2641  067A  0DF5               	rlf	___lmul@multiplicand+1,f
  2642  067B  0DF6               	rlf	___lmul@multiplicand+2,f
  2643  067C  0DF7               	rlf	___lmul@multiplicand+3,f
  2644  067D  0B89               	decfsz	9,f
  2645  067E  2E79               	goto	u275
  2646  067F                     l1147:
  2647  067F  3001               	movlw	1
  2648  0680                     u285:
  2649  0680  36F3               	lsrf	___lmul@multiplier+3,f
  2650  0681  0CF2               	rrf	___lmul@multiplier+2,f
  2651  0682  0CF1               	rrf	___lmul@multiplier+1,f
  2652  0683  0CF0               	rrf	___lmul@multiplier,f
  2653  0684  0B89               	decfsz	9,f
  2654  0685  2E80               	goto	u285
  2655  0686  0873               	movf	___lmul@multiplier+3,w
  2656  0687  0472               	iorwf	___lmul@multiplier+2,w
  2657  0688  0471               	iorwf	___lmul@multiplier+1,w
  2658  0689  0470               	iorwf	___lmul@multiplier,w
  2659  068A  1D03               	skipz
  2660  068B  2E8D               	goto	u291
  2661  068C  2E8E               	goto	u290
  2662  068D                     u291:
  2663  068D  2E6C               	goto	l1141
  2664  068E                     u290:
  2665  068E                     l1149:
  2666  068E  087B               	movf	___lmul@product+3,w
  2667  068F  00F3               	movwf	?___lmul+3
  2668  0690  087A               	movf	___lmul@product+2,w
  2669  0691  00F2               	movwf	?___lmul+2
  2670  0692  0879               	movf	___lmul@product+1,w
  2671  0693  00F1               	movwf	?___lmul+1
  2672  0694  0878               	movf	___lmul@product,w
  2673  0695  00F0               	movwf	?___lmul
  2674  0696                     l369:
  2675  0696  0008               	return
  2676  0697                     __end_of___lmul:
  2677                           
  2678                           	psect	text3
  2679  064C                     __ptext3:	
  2680 ;; *************** function _Send_LED_StartFrame *****************
  2681 ;; Defined at:
  2682 ;;		line 74 in file "main.c"
  2683 ;; Parameters:    Size  Location     Type
  2684 ;;		None
  2685 ;; Auto vars:     Size  Location     Type
  2686 ;;  i               2    2[COMMON] int 
  2687 ;; Return value:  Size  Location     Type
  2688 ;;                  1    wreg      void 
  2689 ;; Registers used:
  2690 ;;		wreg, status,2, status,0, pclath, cstack
  2691 ;; Tracked objects:
  2692 ;;		On entry : 0/0
  2693 ;;		On exit  : 0/0
  2694 ;;		Unchanged: 0/0
  2695 ;; Data sizes:     COMMON   BANK0   BANK1   BANK2   BANK3   BANK4   BANK5   BANK6   BANK7   BANK8   BANK9  BANK10  BANK1
      +1  BANK12  BANK13  BANK14  BANK15  BANK16  BANK17  BANK18  BANK19  BANK20  BANK21  BANK22  BANK23  BANK24  BANK25
  2696 ;;      Params:         0       0       0       0       0       0       0       0       0       0       0       0       
      +0       0       0       0       0       0       0       0       0       0       0       0       0       0       0
  2697 ;;      Locals:         2       0       0       0       0       0       0       0       0       0       0       0       
      +0       0       0       0       0       0       0       0       0       0       0       0       0       0       0
  2698 ;;      Temps:          1       0       0       0       0       0       0       0       0       0       0       0       
      +0       0       0       0       0       0       0       0       0       0       0       0       0       0       0
  2699 ;;      Totals:         3       0       0       0       0       0       0       0       0       0       0       0       
      +0       0       0       0       0       0       0       0       0       0       0       0       0       0       0
  2700 ;;Total ram usage:        3 bytes
  2701 ;; Hardware stack levels used: 1
  2702 ;; Hardware stack levels required when called: 1
  2703 ;; This function calls:
  2704 ;;		_SPI1_Exchange8bit
  2705 ;; This function is called by:
  2706 ;;		_main
  2707 ;; This function uses a non-reentrant model
  2708 ;;
  2709                           
  2710  064C                     _Send_LED_StartFrame:	
  2711                           ;psect for function _Send_LED_StartFrame
  2712                           
  2713  064C                     l1157:	
  2714                           ;incstack = 0
  2715                           ; Regs used in _Send_LED_StartFrame: [wreg+status,2+status,0+pclath+cstack]
  2716                           
  2717                           
  2718                           ;main.c: 75:     for (int i = 0; i < 4; i++) {
  2719  064C  01F2               	clrf	Send_LED_StartFrame@i
  2720  064D  01F3               	clrf	Send_LED_StartFrame@i+1
  2721  064E                     l1163:
  2722                           
  2723                           ;main.c: 76:         SPI1_Exchange8bit(0x00);
  2724  064E  3000               	movlw	0
  2725  064F  3186  2609  3186   	fcall	_SPI1_Exchange8bit
  2726  0652                     l1165:
  2727                           
  2728                           ;main.c: 77:     }
  2729  0652  3001               	movlw	1
  2730  0653  07F2               	addwf	Send_LED_StartFrame@i,f
  2731  0654  3000               	movlw	0
  2732  0655  3DF3               	addwfc	Send_LED_StartFrame@i+1,f
  2733  0656                     l1167:
  2734  0656  0873               	movf	Send_LED_StartFrame@i+1,w
  2735  0657  3A80               	xorlw	128
  2736  0658  00F1               	movwf	??_Send_LED_StartFrame
  2737  0659  3080               	movlw	128
  2738  065A  0271               	subwf	??_Send_LED_StartFrame,w
  2739  065B  1D03               	skipz
  2740  065C  2E5F               	goto	u305
  2741  065D  3004               	movlw	4
  2742  065E  0272               	subwf	Send_LED_StartFrame@i,w
  2743  065F                     u305:
  2744  065F  1C03               	skipc
  2745  0660  2E62               	goto	u301
  2746  0661  2E63               	goto	u300
  2747  0662                     u301:
  2748  0662  2E4E               	goto	l1163
  2749  0663                     u300:
  2750  0663                     l156:
  2751  0663  0008               	return
  2752  0664                     __end_of_Send_LED_StartFrame:
  2753                           
  2754                           	psect	text4
  2755  0621                     __ptext4:	
  2756 ;; *************** function _Send_LED_Frame *****************
  2757 ;; Defined at:
  2758 ;;		line 67 in file "main.c"
  2759 ;; Parameters:    Size  Location     Type
  2760 ;;  intensity       1    wreg     unsigned char 
  2761 ;;  blue            1    1[COMMON] unsigned char 
  2762 ;;  green           1    2[COMMON] unsigned char 
  2763 ;;  red             1    3[COMMON] unsigned char 
  2764 ;; Auto vars:     Size  Location     Type
  2765 ;;  intensity       1    4[COMMON] unsigned char 
  2766 ;; Return value:  Size  Location     Type
  2767 ;;                  1    wreg      void 
  2768 ;; Registers used:
  2769 ;;		wreg, status,2, status,0, pclath, cstack
  2770 ;; Tracked objects:
  2771 ;;		On entry : 0/0
  2772 ;;		On exit  : 0/0
  2773 ;;		Unchanged: 0/0
  2774 ;; Data sizes:     COMMON   BANK0   BANK1   BANK2   BANK3   BANK4   BANK5   BANK6   BANK7   BANK8   BANK9  BANK10  BANK1
      +1  BANK12  BANK13  BANK14  BANK15  BANK16  BANK17  BANK18  BANK19  BANK20  BANK21  BANK22  BANK23  BANK24  BANK25
  2775 ;;      Params:         3       0       0       0       0       0       0       0       0       0       0       0       
      +0       0       0       0       0       0       0       0       0       0       0       0       0       0       0
  2776 ;;      Locals:         1       0       0       0       0       0       0       0       0       0       0       0       
      +0       0       0       0       0       0       0       0       0       0       0       0       0       0       0
  2777 ;;      Temps:          0       0       0       0       0       0       0       0       0       0       0       0       
      +0       0       0       0       0       0       0       0       0       0       0       0       0       0       0
  2778 ;;      Totals:         4       0       0       0       0       0       0       0       0       0       0       0       
      +0       0       0       0       0       0       0       0       0       0       0       0       0       0       0
  2779 ;;Total ram usage:        4 bytes
  2780 ;; Hardware stack levels used: 1
  2781 ;; Hardware stack levels required when called: 1
  2782 ;; This function calls:
  2783 ;;		_SPI1_Exchange8bit
  2784 ;; This function is called by:
  2785 ;;		_main
  2786 ;; This function uses a non-reentrant model
  2787 ;;
  2788                           
  2789  0621                     _Send_LED_Frame:	
  2790                           ;psect for function _Send_LED_Frame
  2791                           
  2792                           
  2793                           ;incstack = 0
  2794                           ; Regs used in _Send_LED_Frame: [wreg+status,2+status,0+pclath+cstack]
  2795                           ;Send_LED_Frame@intensity stored from wreg
  2796  0621  00F4               	movwf	Send_LED_Frame@intensity
  2797  0622                     l1155:
  2798                           
  2799                           ;main.c: 68:     SPI1_Exchange8bit(0xE0 | intensity);
  2800  0622  0874               	movf	Send_LED_Frame@intensity,w
  2801  0623  38E0               	iorlw	224
  2802  0624  3186  2609  3186   	fcall	_SPI1_Exchange8bit
  2803                           
  2804                           ;main.c: 69:     SPI1_Exchange8bit(blue);
  2805  0627  0871               	movf	Send_LED_Frame@blue,w
  2806  0628  3186  2609  3186   	fcall	_SPI1_Exchange8bit
  2807                           
  2808                           ;main.c: 70:     SPI1_Exchange8bit(green);
  2809  062B  0872               	movf	Send_LED_Frame@green,w
  2810  062C  3186  2609  3186   	fcall	_SPI1_Exchange8bit
  2811                           
  2812                           ;main.c: 71:     SPI1_Exchange8bit(red);
  2813  062F  0873               	movf	Send_LED_Frame@red,w
  2814  0630  3186  2609  3186   	fcall	_SPI1_Exchange8bit
  2815  0633                     l151:
  2816  0633  0008               	return
  2817  0634                     __end_of_Send_LED_Frame:
  2818                           
  2819                           	psect	text5
  2820  0634                     __ptext5:	
  2821 ;; *************** function _Send_LED_EndFrame *****************
  2822 ;; Defined at:
  2823 ;;		line 80 in file "main.c"
  2824 ;; Parameters:    Size  Location     Type
  2825 ;;		None
  2826 ;; Auto vars:     Size  Location     Type
  2827 ;;  i               2    2[COMMON] int 
  2828 ;; Return value:  Size  Location     Type
  2829 ;;                  1    wreg      void 
  2830 ;; Registers used:
  2831 ;;		wreg, status,2, status,0, pclath, cstack
  2832 ;; Tracked objects:
  2833 ;;		On entry : 0/0
  2834 ;;		On exit  : 0/0
  2835 ;;		Unchanged: 0/0
  2836 ;; Data sizes:     COMMON   BANK0   BANK1   BANK2   BANK3   BANK4   BANK5   BANK6   BANK7   BANK8   BANK9  BANK10  BANK1
      +1  BANK12  BANK13  BANK14  BANK15  BANK16  BANK17  BANK18  BANK19  BANK20  BANK21  BANK22  BANK23  BANK24  BANK25
  2837 ;;      Params:         0       0       0       0       0       0       0       0       0       0       0       0       
      +0       0       0       0       0       0       0       0       0       0       0       0       0       0       0
  2838 ;;      Locals:         2       0       0       0       0       0       0       0       0       0       0       0       
      +0       0       0       0       0       0       0       0       0       0       0       0       0       0       0
  2839 ;;      Temps:          1       0       0       0       0       0       0       0       0       0       0       0       
      +0       0       0       0       0       0       0       0       0       0       0       0       0       0       0
  2840 ;;      Totals:         3       0       0       0       0       0       0       0       0       0       0       0       
      +0       0       0       0       0       0       0       0       0       0       0       0       0       0       0
  2841 ;;Total ram usage:        3 bytes
  2842 ;; Hardware stack levels used: 1
  2843 ;; Hardware stack levels required when called: 1
  2844 ;; This function calls:
  2845 ;;		_SPI1_Exchange8bit
  2846 ;; This function is called by:
  2847 ;;		_main
  2848 ;; This function uses a non-reentrant model
  2849 ;;
  2850                           
  2851  0634                     _Send_LED_EndFrame:	
  2852                           ;psect for function _Send_LED_EndFrame
  2853                           
  2854  0634                     l1169:	
  2855                           ;incstack = 0
  2856                           ; Regs used in _Send_LED_EndFrame: [wreg+status,2+status,0+pclath+cstack]
  2857                           
  2858                           
  2859                           ;main.c: 81:     for (int i = 0; i < 4; i++) {
  2860  0634  01F2               	clrf	Send_LED_EndFrame@i
  2861  0635  01F3               	clrf	Send_LED_EndFrame@i+1
  2862  0636                     l1175:
  2863                           
  2864                           ;main.c: 82:         SPI1_Exchange8bit(0xFF);
  2865  0636  30FF               	movlw	255
  2866  0637  3186  2609  3186   	fcall	_SPI1_Exchange8bit
  2867  063A                     l1177:
  2868                           
  2869                           ;main.c: 83:     }
  2870  063A  3001               	movlw	1
  2871  063B  07F2               	addwf	Send_LED_EndFrame@i,f
  2872  063C  3000               	movlw	0
  2873  063D  3DF3               	addwfc	Send_LED_EndFrame@i+1,f
  2874  063E                     l1179:
  2875  063E  0873               	movf	Send_LED_EndFrame@i+1,w
  2876  063F  3A80               	xorlw	128
  2877  0640  00F1               	movwf	??_Send_LED_EndFrame
  2878  0641  3080               	movlw	128
  2879  0642  0271               	subwf	??_Send_LED_EndFrame,w
  2880  0643  1D03               	skipz
  2881  0644  2E47               	goto	u315
  2882  0645  3004               	movlw	4
  2883  0646  0272               	subwf	Send_LED_EndFrame@i,w
  2884  0647                     u315:
  2885  0647  1C03               	skipc
  2886  0648  2E4A               	goto	u311
  2887  0649  2E4B               	goto	u310
  2888  064A                     u311:
  2889  064A  2E36               	goto	l1175
  2890  064B                     u310:
  2891  064B                     l161:
  2892  064B  0008               	return
  2893  064C                     __end_of_Send_LED_EndFrame:
  2894                           
  2895                           	psect	text6
  2896  0609                     __ptext6:	
  2897 ;; *************** function _SPI1_Exchange8bit *****************
  2898 ;; Defined at:
  2899 ;;		line 77 in file "mcc_generated_files/spi1.c"
  2900 ;; Parameters:    Size  Location     Type
  2901 ;;  data            1    wreg     unsigned char 
  2902 ;; Auto vars:     Size  Location     Type
  2903 ;;  data            1    0[COMMON] unsigned char 
  2904 ;; Return value:  Size  Location     Type
  2905 ;;                  1    wreg      unsigned char 
  2906 ;; Registers used:
  2907 ;;		wreg
  2908 ;; Tracked objects:
  2909 ;;		On entry : 0/0
  2910 ;;		On exit  : 0/0
  2911 ;;		Unchanged: 0/0
  2912 ;; Data sizes:     COMMON   BANK0   BANK1   BANK2   BANK3   BANK4   BANK5   BANK6   BANK7   BANK8   BANK9  BANK10  BANK1
      +1  BANK12  BANK13  BANK14  BANK15  BANK16  BANK17  BANK18  BANK19  BANK20  BANK21  BANK22  BANK23  BANK24  BANK25
  2913 ;;      Params:         0       0       0       0       0       0       0       0       0       0       0       0       
      +0       0       0       0       0       0       0       0       0       0       0       0       0       0       0
  2914 ;;      Locals:         1       0       0       0       0       0       0       0       0       0       0       0       
      +0       0       0       0       0       0       0       0       0       0       0       0       0       0       0
  2915 ;;      Temps:          0       0       0       0       0       0       0       0       0       0       0       0       
      +0       0       0       0       0       0       0       0       0       0       0       0       0       0       0
  2916 ;;      Totals:         1       0       0       0       0       0       0       0       0       0       0       0       
      +0       0       0       0       0       0       0       0       0       0       0       0       0       0       0
  2917 ;;Total ram usage:        1 bytes
  2918 ;; Hardware stack levels used: 1
  2919 ;; This function calls:
  2920 ;;		Nothing
  2921 ;; This function is called by:
  2922 ;;		_Send_LED_Frame
  2923 ;;		_Send_LED_StartFrame
  2924 ;;		_Send_LED_EndFrame
  2925 ;;		_SPI1_Exchange8bitBuffer
  2926 ;; This function uses a non-reentrant model
  2927 ;;
  2928                           
  2929  0609                     _SPI1_Exchange8bit:	
  2930                           ;psect for function _SPI1_Exchange8bit
  2931                           
  2932                           
  2933                           ;incstack = 0
  2934                           ; Regs used in _SPI1_Exchange8bit: [wreg]
  2935                           ;SPI1_Exchange8bit@data stored from wreg
  2936  0609  00F0               	movwf	SPI1_Exchange8bit@data
  2937  060A                     l1131:
  2938                           
  2939                           ;mcc_generated_files/spi1.c: 77: uint8_t SPI1_Exchange8bit(uint8_t data);mcc_generated_f
      +                          iles/spi1.c: 78: {;mcc_generated_files/spi1.c: 80:     SSP1CON1bits.WCOL = 0;
  2940  060A  0024               	movlb	4	; select bank4
  2941  060B  1395               	bcf	21,7	;volatile
  2942  060C                     l1133:
  2943                           
  2944                           ;mcc_generated_files/spi1.c: 82:     SSP1BUF = data;
  2945  060C  0870               	movf	SPI1_Exchange8bit@data,w
  2946  060D  0091               	movwf	17	;volatile
  2947  060E                     l97:	
  2948                           ;mcc_generated_files/spi1.c: 85:     {;mcc_generated_files/spi1.c: 86:     }
  2949                           
  2950                           
  2951                           ;mcc_generated_files/spi1.c: 84:     while(SSP1STATbits.BF == 0x0)
  2952  060E  1C14               	btfss	20,0	;volatile
  2953  060F  2E11               	goto	u251
  2954  0610  2E12               	goto	u250
  2955  0611                     u251:
  2956  0611  2E0E               	goto	l97
  2957  0612                     u250:
  2958  0612                     l1135:
  2959                           
  2960                           ;mcc_generated_files/spi1.c: 88:     return (SSP1BUF);
  2961  0612  0811               	movf	17,w	;volatile
  2962  0613                     l100:
  2963  0613  0008               	return
  2964  0614                     __end_of_SPI1_Exchange8bit:
  2965                           
  2966                           	psect	text7
  2967  0614                     __ptext7:	
  2968 ;; *************** function _SYSTEM_Initialize *****************
  2969 ;; Defined at:
  2970 ;;		line 76 in file "mcc_generated_files/mcc.c"
  2971 ;; Parameters:    Size  Location     Type
  2972 ;;		None
  2973 ;; Auto vars:     Size  Location     Type
  2974 ;;		None
  2975 ;; Return value:  Size  Location     Type
  2976 ;;                  1    wreg      void 
  2977 ;; Registers used:
  2978 ;;		wreg, status,2, status,0, pclath, cstack
  2979 ;; Tracked objects:
  2980 ;;		On entry : 0/0
  2981 ;;		On exit  : 0/0
  2982 ;;		Unchanged: 0/0
  2983 ;; Data sizes:     COMMON   BANK0   BANK1   BANK2   BANK3   BANK4   BANK5   BANK6   BANK7   BANK8   BANK9  BANK10  BANK1
      +1  BANK12  BANK13  BANK14  BANK15  BANK16  BANK17  BANK18  BANK19  BANK20  BANK21  BANK22  BANK23  BANK24  BANK25
  2984 ;;      Params:         0       0       0       0       0       0       0       0       0       0       0       0       
      +0       0       0       0       0       0       0       0       0       0       0       0       0       0       0
  2985 ;;      Locals:         0       0       0       0       0       0       0       0       0       0       0       0       
      +0       0       0       0       0       0       0       0       0       0       0       0       0       0       0
  2986 ;;      Temps:          0       0       0       0       0       0       0       0       0       0       0       0       
      +0       0       0       0       0       0       0       0       0       0       0       0       0       0       0
  2987 ;;      Totals:         0       0       0       0       0       0       0       0       0       0       0       0       
      +0       0       0       0       0       0       0       0       0       0       0       0       0       0       0
  2988 ;;Total ram usage:        0 bytes
  2989 ;; Hardware stack levels used: 1
  2990 ;; Hardware stack levels required when called: 1
  2991 ;; This function calls:
  2992 ;;		_OSCILLATOR_Initialize
  2993 ;;		_PIN_MANAGER_Initialize
  2994 ;;		_SPI1_Initialize
  2995 ;;		_WDT_Initialize
  2996 ;; This function is called by:
  2997 ;;		_main
  2998 ;; This function uses a non-reentrant model
  2999 ;;
  3000                           
  3001  0614                     _SYSTEM_Initialize:	
  3002                           ;psect for function _SYSTEM_Initialize
  3003                           
  3004  0614                     l1153:	
  3005                           ;incstack = 0
  3006                           ; Regs used in _SYSTEM_Initialize: [wreg+status,2+status,0+pclath+cstack]
  3007                           
  3008                           
  3009                           ;mcc_generated_files/mcc.c: 79:     PIN_MANAGER_Initialize();
  3010  0614  3186  26CC  3186   	fcall	_PIN_MANAGER_Initialize
  3011                           
  3012                           ;mcc_generated_files/mcc.c: 80:     OSCILLATOR_Initialize();
  3013  0617  3186  2601  3186   	fcall	_OSCILLATOR_Initialize
  3014                           
  3015                           ;mcc_generated_files/mcc.c: 81:     WDT_Initialize();
  3016  061A  3185  25F7  3186   	fcall	_WDT_Initialize
  3017                           
  3018                           ;mcc_generated_files/mcc.c: 82:     SPI1_Initialize();
  3019  061D  3185  25FB  3186   	fcall	_SPI1_Initialize
  3020  0620                     l23:
  3021  0620  0008               	return
  3022  0621                     __end_of_SYSTEM_Initialize:
  3023                           
  3024                           	psect	text8
  3025  05F7                     __ptext8:	
  3026 ;; *************** function _WDT_Initialize *****************
  3027 ;; Defined at:
  3028 ;;		line 101 in file "mcc_generated_files/mcc.c"
  3029 ;; Parameters:    Size  Location     Type
  3030 ;;		None
  3031 ;; Auto vars:     Size  Location     Type
  3032 ;;		None
  3033 ;; Return value:  Size  Location     Type
  3034 ;;                  1    wreg      void 
  3035 ;; Registers used:
  3036 ;;		wreg
  3037 ;; Tracked objects:
  3038 ;;		On entry : 0/0
  3039 ;;		On exit  : 0/0
  3040 ;;		Unchanged: 0/0
  3041 ;; Data sizes:     COMMON   BANK0   BANK1   BANK2   BANK3   BANK4   BANK5   BANK6   BANK7   BANK8   BANK9  BANK10  BANK1
      +1  BANK12  BANK13  BANK14  BANK15  BANK16  BANK17  BANK18  BANK19  BANK20  BANK21  BANK22  BANK23  BANK24  BANK25
  3042 ;;      Params:         0       0       0       0       0       0       0       0       0       0       0       0       
      +0       0       0       0       0       0       0       0       0       0       0       0       0       0       0
  3043 ;;      Locals:         0       0       0       0       0       0       0       0       0       0       0       0       
      +0       0       0       0       0       0       0       0       0       0       0       0       0       0       0
  3044 ;;      Temps:          0       0       0       0       0       0       0       0       0       0       0       0       
      +0       0       0       0       0       0       0       0       0       0       0       0       0       0       0
  3045 ;;      Totals:         0       0       0       0       0       0       0       0       0       0       0       0       
      +0       0       0       0       0       0       0       0       0       0       0       0       0       0       0
  3046 ;;Total ram usage:        0 bytes
  3047 ;; Hardware stack levels used: 1
  3048 ;; This function calls:
  3049 ;;		Nothing
  3050 ;; This function is called by:
  3051 ;;		_SYSTEM_Initialize
  3052 ;; This function uses a non-reentrant model
  3053 ;;
  3054                           
  3055  05F7                     _WDT_Initialize:	
  3056                           ;psect for function _WDT_Initialize
  3057                           
  3058  05F7                     l1123:	
  3059                           ;incstack = 0
  3060                           ; Regs used in _WDT_Initialize: [wreg]
  3061                           
  3062                           
  3063                           ;mcc_generated_files/mcc.c: 104:     WDTCON = 0x20;
  3064  05F7  3020               	movlw	32
  3065  05F8  0021               	movlb	1	; select bank1
  3066  05F9  0097               	movwf	23	;volatile
  3067  05FA                     l29:
  3068  05FA  0008               	return
  3069  05FB                     __end_of_WDT_Initialize:
  3070                           
  3071                           	psect	text9
  3072  05FB                     __ptext9:	
  3073 ;; *************** function _SPI1_Initialize *****************
  3074 ;; Defined at:
  3075 ;;		line 63 in file "mcc_generated_files/spi1.c"
  3076 ;; Parameters:    Size  Location     Type
  3077 ;;		None
  3078 ;; Auto vars:     Size  Location     Type
  3079 ;;		None
  3080 ;; Return value:  Size  Location     Type
  3081 ;;                  1    wreg      void 
  3082 ;; Registers used:
  3083 ;;		wreg, status,2
  3084 ;; Tracked objects:
  3085 ;;		On entry : 0/0
  3086 ;;		On exit  : 0/0
  3087 ;;		Unchanged: 0/0
  3088 ;; Data sizes:     COMMON   BANK0   BANK1   BANK2   BANK3   BANK4   BANK5   BANK6   BANK7   BANK8   BANK9  BANK10  BANK1
      +1  BANK12  BANK13  BANK14  BANK15  BANK16  BANK17  BANK18  BANK19  BANK20  BANK21  BANK22  BANK23  BANK24  BANK25
  3089 ;;      Params:         0       0       0       0       0       0       0       0       0       0       0       0       
      +0       0       0       0       0       0       0       0       0       0       0       0       0       0       0
  3090 ;;      Locals:         0       0       0       0       0       0       0       0       0       0       0       0       
      +0       0       0       0       0       0       0       0       0       0       0       0       0       0       0
  3091 ;;      Temps:          0       0       0       0       0       0       0       0       0       0       0       0       
      +0       0       0       0       0       0       0       0       0       0       0       0       0       0       0
  3092 ;;      Totals:         0       0       0       0       0       0       0       0       0       0       0       0       
      +0       0       0       0       0       0       0       0       0       0       0       0       0       0       0
  3093 ;;Total ram usage:        0 bytes
  3094 ;; Hardware stack levels used: 1
  3095 ;; This function calls:
  3096 ;;		Nothing
  3097 ;; This function is called by:
  3098 ;;		_SYSTEM_Initialize
  3099 ;; This function uses a non-reentrant model
  3100 ;;
  3101                           
  3102  05FB                     _SPI1_Initialize:	
  3103                           ;psect for function _SPI1_Initialize
  3104                           
  3105  05FB                     l1125:	
  3106                           ;incstack = 0
  3107                           ; Regs used in _SPI1_Initialize: [wreg+status,2]
  3108                           
  3109                           
  3110                           ;mcc_generated_files/spi1.c: 68:     SSP1STAT = 0x00;
  3111  05FB  0024               	movlb	4	; select bank4
  3112  05FC  0194               	clrf	20	;volatile
  3113  05FD                     l1127:
  3114                           
  3115                           ;mcc_generated_files/spi1.c: 71:     SSP1CON1 = 0x20;
  3116  05FD  3020               	movlw	32
  3117  05FE  0095               	movwf	21	;volatile
  3118  05FF                     l1129:
  3119                           
  3120                           ;mcc_generated_files/spi1.c: 74:     SSP1ADD = 0x00;
  3121  05FF  0192               	clrf	18	;volatile
  3122  0600                     l94:
  3123  0600  0008               	return
  3124  0601                     __end_of_SPI1_Initialize:
  3125                           
  3126                           	psect	text10
  3127  06CC                     __ptext10:	
  3128 ;; *************** function _PIN_MANAGER_Initialize *****************
  3129 ;; Defined at:
  3130 ;;		line 51 in file "mcc_generated_files/pin_manager.c"
  3131 ;; Parameters:    Size  Location     Type
  3132 ;;		None
  3133 ;; Auto vars:     Size  Location     Type
  3134 ;;  state           1    0[COMMON] _Bool 
  3135 ;; Return value:  Size  Location     Type
  3136 ;;                  1    wreg      void 
  3137 ;; Registers used:
  3138 ;;		wreg, status,2, status,0
  3139 ;; Tracked objects:
  3140 ;;		On entry : 0/0
  3141 ;;		On exit  : 0/0
  3142 ;;		Unchanged: 0/0
  3143 ;; Data sizes:     COMMON   BANK0   BANK1   BANK2   BANK3   BANK4   BANK5   BANK6   BANK7   BANK8   BANK9  BANK10  BANK1
      +1  BANK12  BANK13  BANK14  BANK15  BANK16  BANK17  BANK18  BANK19  BANK20  BANK21  BANK22  BANK23  BANK24  BANK25
  3144 ;;      Params:         0       0       0       0       0       0       0       0       0       0       0       0       
      +0       0       0       0       0       0       0       0       0       0       0       0       0       0       0
  3145 ;;      Locals:         1       0       0       0       0       0       0       0       0       0       0       0       
      +0       0       0       0       0       0       0       0       0       0       0       0       0       0       0
  3146 ;;      Temps:          0       0       0       0       0       0       0       0       0       0       0       0       
      +0       0       0       0       0       0       0       0       0       0       0       0       0       0       0
  3147 ;;      Totals:         1       0       0       0       0       0       0       0       0       0       0       0       
      +0       0       0       0       0       0       0       0       0       0       0       0       0       0       0
  3148 ;;Total ram usage:        1 bytes
  3149 ;; Hardware stack levels used: 1
  3150 ;; This function calls:
  3151 ;;		Nothing
  3152 ;; This function is called by:
  3153 ;;		_SYSTEM_Initialize
  3154 ;; This function uses a non-reentrant model
  3155 ;;
  3156                           
  3157  06CC                     _PIN_MANAGER_Initialize:	
  3158                           ;psect for function _PIN_MANAGER_Initialize
  3159                           
  3160  06CC                     l1085:	
  3161                           ;incstack = 0
  3162                           ; Regs used in _PIN_MANAGER_Initialize: [wreg+status,2+status,0]
  3163                           
  3164                           
  3165                           ;mcc_generated_files/pin_manager.c: 56:     LATA = 0x00;
  3166  06CC  0022               	movlb	2	; select bank2
  3167  06CD  018C               	clrf	12	;volatile
  3168                           
  3169                           ;mcc_generated_files/pin_manager.c: 57:     LATB = 0x00;
  3170  06CE  018D               	clrf	13	;volatile
  3171                           
  3172                           ;mcc_generated_files/pin_manager.c: 58:     LATC = 0x00;
  3173  06CF  018E               	clrf	14	;volatile
  3174  06D0                     l1087:
  3175                           
  3176                           ;mcc_generated_files/pin_manager.c: 63:     TRISA = 0x37;
  3177  06D0  3037               	movlw	55
  3178  06D1  0021               	movlb	1	; select bank1
  3179  06D2  008C               	movwf	12	;volatile
  3180  06D3                     l1089:
  3181                           
  3182                           ;mcc_generated_files/pin_manager.c: 64:     TRISB = 0xA0;
  3183  06D3  30A0               	movlw	160
  3184  06D4  008D               	movwf	13	;volatile
  3185  06D5                     l1091:
  3186                           
  3187                           ;mcc_generated_files/pin_manager.c: 65:     TRISC = 0xFF;
  3188  06D5  30FF               	movlw	255
  3189  06D6  008E               	movwf	14	;volatile
  3190  06D7                     l1093:
  3191                           
  3192                           ;mcc_generated_files/pin_manager.c: 70:     ANSELC = 0xFF;
  3193  06D7  30FF               	movlw	255
  3194  06D8  0023               	movlb	3	; select bank3
  3195  06D9  008E               	movwf	14	;volatile
  3196  06DA                     l1095:
  3197                           
  3198                           ;mcc_generated_files/pin_manager.c: 71:     ANSELB = 0xA0;
  3199  06DA  30A0               	movlw	160
  3200  06DB  008D               	movwf	13	;volatile
  3201  06DC                     l1097:
  3202                           
  3203                           ;mcc_generated_files/pin_manager.c: 72:     ANSELA = 0x36;
  3204  06DC  3036               	movlw	54
  3205  06DD  008C               	movwf	12	;volatile
  3206                           
  3207                           ;mcc_generated_files/pin_manager.c: 77:     WPUB = 0x00;
  3208  06DE  0024               	movlb	4	; select bank4
  3209  06DF  018D               	clrf	13	;volatile
  3210                           
  3211                           ;mcc_generated_files/pin_manager.c: 78:     WPUA = 0x00;
  3212  06E0  018C               	clrf	12	;volatile
  3213                           
  3214                           ;mcc_generated_files/pin_manager.c: 79:     WPUC = 0x00;
  3215  06E1  018E               	clrf	14	;volatile
  3216                           
  3217                           ;mcc_generated_files/pin_manager.c: 84:     ODCONA = 0x00;
  3218  06E2  0025               	movlb	5	; select bank5
  3219  06E3  018C               	clrf	12	;volatile
  3220                           
  3221                           ;mcc_generated_files/pin_manager.c: 85:     ODCONB = 0x00;
  3222  06E4  018D               	clrf	13	;volatile
  3223                           
  3224                           ;mcc_generated_files/pin_manager.c: 86:     ODCONC = 0x00;
  3225  06E5  018E               	clrf	14	;volatile
  3226  06E6                     l1099:
  3227                           
  3228                           ;mcc_generated_files/pin_manager.c: 93:     _Bool state = GIE;
  3229  06E6  3000               	movlw	0
  3230  06E7  1B8B               	btfsc	11,7	;volatile
  3231  06E8  3001               	movlw	1
  3232  06E9  00F0               	movwf	PIN_MANAGER_Initialize@state
  3233  06EA                     l1101:
  3234                           
  3235                           ;mcc_generated_files/pin_manager.c: 94:     GIE = 0;
  3236  06EA  138B               	bcf	11,7	;volatile
  3237                           
  3238                           ;mcc_generated_files/pin_manager.c: 95:     PPSLOCK = 0x55;
  3239  06EB  3055               	movlw	85
  3240  06EC  003C               	movlb	28	; select bank28
  3241  06ED  008F               	movwf	15	;volsfr
  3242                           
  3243                           ;mcc_generated_files/pin_manager.c: 96:     PPSLOCK = 0xAA;
  3244  06EE  30AA               	movlw	170
  3245  06EF  008F               	movwf	15	;volsfr
  3246  06F0                     l1103:
  3247                           
  3248                           ;mcc_generated_files/pin_manager.c: 97:     PPSLOCKbits.PPSLOCKED = 0x00;
  3249  06F0  100F               	bcf	15,0	;volsfr
  3250  06F1                     l1105:
  3251                           
  3252                           ;mcc_generated_files/pin_manager.c: 99:     SSP1DATPPSbits.SSP1DATPPS = 0x00;
  3253  06F1  30E0               	movlw	-32
  3254  06F2  05A1               	andwf	33,f	;volatile
  3255  06F3                     l1107:
  3256                           
  3257                           ;mcc_generated_files/pin_manager.c: 100:     SSP1CLKPPSbits.SSP1CLKPPS = 0x0E;
  3258  06F3  0820               	movf	32,w	;volatile
  3259  06F4  39E0               	andlw	-32
  3260  06F5  380E               	iorlw	14
  3261  06F6  00A0               	movwf	32	;volatile
  3262  06F7                     l1109:
  3263                           
  3264                           ;mcc_generated_files/pin_manager.c: 101:     RB4PPSbits.RB4PPS = 0x19;
  3265  06F7  003D               	movlb	29	; select bank29
  3266  06F8  081C               	movf	28,w	;volatile
  3267  06F9  39E0               	andlw	-32
  3268  06FA  3819               	iorlw	25
  3269  06FB  009C               	movwf	28	;volatile
  3270  06FC                     l1111:
  3271                           
  3272                           ;mcc_generated_files/pin_manager.c: 102:     RB6PPSbits.RB6PPS = 0x18;
  3273  06FC  081E               	movf	30,w	;volatile
  3274  06FD  39E0               	andlw	-32
  3275  06FE  3818               	iorlw	24
  3276  06FF  009E               	movwf	30	;volatile
  3277                           
  3278                           ;mcc_generated_files/pin_manager.c: 104:     PPSLOCK = 0x55;
  3279  0700  3055               	movlw	85
  3280  0701  003C               	movlb	28	; select bank28
  3281  0702  008F               	movwf	15	;volsfr
  3282                           
  3283                           ;mcc_generated_files/pin_manager.c: 105:     PPSLOCK = 0xAA;
  3284  0703  30AA               	movlw	170
  3285  0704  008F               	movwf	15	;volsfr
  3286  0705                     l1113:
  3287                           
  3288                           ;mcc_generated_files/pin_manager.c: 106:     PPSLOCKbits.PPSLOCKED = 0x01;
  3289  0705  140F               	bsf	15,0	;volsfr
  3290  0706                     l1115:
  3291                           
  3292                           ;mcc_generated_files/pin_manager.c: 108:     GIE = state;
  3293  0706  0C70               	rrf	PIN_MANAGER_Initialize@state,w
  3294  0707  1C03               	skipc
  3295  0708  138B               	bcf	11,7	;volatile
  3296  0709  1803               	skipnc
  3297  070A  178B               	bsf	11,7	;volatile
  3298  070B                     l76:
  3299  070B  0008               	return
  3300  070C                     __end_of_PIN_MANAGER_Initialize:
  3301                           
  3302                           	psect	text11
  3303  0601                     __ptext11:	
  3304 ;; *************** function _OSCILLATOR_Initialize *****************
  3305 ;; Defined at:
  3306 ;;		line 85 in file "mcc_generated_files/mcc.c"
  3307 ;; Parameters:    Size  Location     Type
  3308 ;;		None
  3309 ;; Auto vars:     Size  Location     Type
  3310 ;;		None
  3311 ;; Return value:  Size  Location     Type
  3312 ;;                  1    wreg      void 
  3313 ;; Registers used:
  3314 ;;		wreg, status,2
  3315 ;; Tracked objects:
  3316 ;;		On entry : 0/0
  3317 ;;		On exit  : 0/0
  3318 ;;		Unchanged: 0/0
  3319 ;; Data sizes:     COMMON   BANK0   BANK1   BANK2   BANK3   BANK4   BANK5   BANK6   BANK7   BANK8   BANK9  BANK10  BANK1
      +1  BANK12  BANK13  BANK14  BANK15  BANK16  BANK17  BANK18  BANK19  BANK20  BANK21  BANK22  BANK23  BANK24  BANK25
  3320 ;;      Params:         0       0       0       0       0       0       0       0       0       0       0       0       
      +0       0       0       0       0       0       0       0       0       0       0       0       0       0       0
  3321 ;;      Locals:         0       0       0       0       0       0       0       0       0       0       0       0       
      +0       0       0       0       0       0       0       0       0       0       0       0       0       0       0
  3322 ;;      Temps:          0       0       0       0       0       0       0       0       0       0       0       0       
      +0       0       0       0       0       0       0       0       0       0       0       0       0       0       0
  3323 ;;      Totals:         0       0       0       0       0       0       0       0       0       0       0       0       
      +0       0       0       0       0       0       0       0       0       0       0       0       0       0       0
  3324 ;;Total ram usage:        0 bytes
  3325 ;; Hardware stack levels used: 1
  3326 ;; This function calls:
  3327 ;;		Nothing
  3328 ;; This function is called by:
  3329 ;;		_SYSTEM_Initialize
  3330 ;; This function uses a non-reentrant model
  3331 ;;
  3332                           
  3333  0601                     _OSCILLATOR_Initialize:	
  3334                           ;psect for function _OSCILLATOR_Initialize
  3335                           
  3336  0601                     l1117:	
  3337                           ;incstack = 0
  3338                           ; Regs used in _OSCILLATOR_Initialize: [wreg+status,2]
  3339                           
  3340                           
  3341                           ;mcc_generated_files/mcc.c: 88:     OSCCON1 = 0x00;
  3342  0601  0032               	movlb	18	; select bank18
  3343  0602  0199               	clrf	25	;volatile
  3344                           
  3345                           ;mcc_generated_files/mcc.c: 90:     OSCCON3 = 0x00;
  3346  0603  019B               	clrf	27	;volatile
  3347                           
  3348                           ;mcc_generated_files/mcc.c: 92:     OSCEN = 0x00;
  3349  0604  019D               	clrf	29	;volatile
  3350  0605                     l1119:
  3351                           
  3352                           ;mcc_generated_files/mcc.c: 94:     OSCFRQ = 0x06;
  3353  0605  3006               	movlw	6
  3354  0606  009F               	movwf	31	;volatile
  3355  0607                     l1121:
  3356                           
  3357                           ;mcc_generated_files/mcc.c: 96:     OSCTUNE = 0x00;
  3358  0607  019E               	clrf	30	;volatile
  3359  0608                     l26:
  3360  0608  0008               	return
  3361  0609                     __end_of_OSCILLATOR_Initialize:
  3362  007E                     btemp	set	126	;btemp
  3363  007E                     wtemp0	set	126
  3364                           
  3365                           	psect	idloc
  3366                           
  3367                           ;Config register IDLOC0 @ 0x8000
  3368                           ;	unspecified, using default values
  3369  8000                     	org	32768
  3370  8000  3FFF               	dw	16383
  3371                           
  3372                           ;Config register IDLOC1 @ 0x8001
  3373                           ;	unspecified, using default values
  3374  8001                     	org	32769
  3375  8001  3FFF               	dw	16383
  3376                           
  3377                           ;Config register IDLOC2 @ 0x8002
  3378                           ;	unspecified, using default values
  3379  8002                     	org	32770
  3380  8002  3FFF               	dw	16383
  3381                           
  3382                           ;Config register IDLOC3 @ 0x8003
  3383                           ;	unspecified, using default values
  3384  8003                     	org	32771
  3385  8003  3FFF               	dw	16383
  3386                           
  3387                           	psect	config
  3388                           
  3389                           ;Config register CONFIG1 @ 0x8007
  3390                           ;	FEXTOSC External Oscillator mode Selection bits
  3391                           ;	FEXTOSC = OFF, Oscillator not enabled
  3392                           ;	Power-up default value for COSC bits
  3393                           ;	RSTOSC = HFINT32, HFINTOSC with 2x PLL (32MHz)
  3394                           ;	Clock Out Enable bit
  3395                           ;	CLKOUTEN = OFF, CLKOUT function is disabled; I/O or oscillator function on OSC2
  3396                           ;	Clock Switch Enable bit
  3397                           ;	CSWEN = ON, Writing to NOSC and NDIV is allowed
  3398                           ;	Fail-Safe Clock Monitor Enable
  3399                           ;	FCMEN = ON, Fail-Safe Clock Monitor is enabled
  3400  8007                     	org	32775
  3401  8007  3F8C               	dw	16268
  3402                           
  3403                           ;Config register CONFIG2 @ 0x8008
  3404                           ;	Master Clear Enable bit
  3405                           ;	MCLRE = ON, MCLR/VPP pin function is MCLR; Weak pull-up enabled
  3406                           ;	Power-up Timer Enable bit
  3407                           ;	PWRTE = OFF, PWRT disabled
  3408                           ;	Watchdog Timer Enable bits
  3409                           ;	WDTE = OFF, WDT disabled; SWDTEN is ignored
  3410                           ;	Low-power BOR enable bit
  3411                           ;	LPBOREN = OFF, ULPBOR disabled
  3412                           ;	Brown-out Reset Enable bits
  3413                           ;	BOREN = ON, Brown-out Reset enabled, SBOREN bit ignored
  3414                           ;	Brown-out Reset Voltage selection bit
  3415                           ;	BORV = LOW, Brown-out voltage (Vbor) set to 2.45V
  3416                           ;	PPSLOCK bit One-Way Set Enable bit
  3417                           ;	PPS1WAY = ON, The PPSLOCK bit can be cleared and set only once; PPS registers remain l
      +                          ocked after one clear/set cycle
  3418                           ;	Stack Overflow/Underflow Reset Enable bit
  3419                           ;	STVREN = ON, Stack Overflow or Underflow will cause a Reset
  3420                           ;	Debugger enable bit
  3421                           ;	DEBUG = OFF, Background debugger disabled
  3422  8008                     	org	32776
  3423  8008  3FF3               	dw	16371
  3424                           
  3425                           ;Config register CONFIG3 @ 0x8009
  3426                           ;	User NVM self-write protection bits
  3427                           ;	WRT = OFF, Write protection off
  3428                           ;	Low Voltage Programming Enable bit
  3429                           ;	LVP = ON, Low Voltage programming enabled. MCLR/VPP pin function is MCLR. MCLRE config
      +                          uration bit is ignored.
  3430  8009                     	org	32777
  3431  8009  3FFF               	dw	16383
  3432                           
  3433                           ;Config register CONFIG4 @ 0x800A
  3434                           ;	User NVM Program Memory Code Protection bit
  3435                           ;	CP = OFF, User NVM code protection disabled
  3436                           ;	Data NVM Memory Code Protection bit
  3437                           ;	CPD = OFF, Data NVM code protection disabled
  3438  800A                     	org	32778
  3439  800A  3FFF               	dw	16383

Data Sizes:
    Strings     0
    Constant    2
    Data        2
    BSS         9
    Persistent  32
    Stack       0

Auto Spaces:
    Space          Size  Autos    Used
    COMMON           14     14      14
    BANK0            80      8      19
    BANK1            80      0       0
    BANK2            80      0       0
    BANK3            80      0       0
    BANK4            80      0       0
    BANK5            80      0       0
    BANK6            80      0       0
    BANK7            80      0       0
    BANK8            80      0       0
    BANK9            80      0       0
    BANK10           80      0       0
    BANK11           80      0       0
    BANK12           80      0       0
    BANK13           80      0       0
    BANK14           80      0       0
    BANK15           80      0       0
    BANK16           80      0       0
    BANK17           80      0       0
    BANK18           80      0       0
    BANK19           80      0       0
    BANK20           80      0       0
    BANK21           80      0       0
    BANK22           80      0       0
    BANK23           80      0       0
    BANK24           80      0       0
    BANK25           32      0       0

Pointer List with Targets:

    None.

Critical Paths under _main in COMMON

    _main->_rand
    _rand->___lmul
    _Send_LED_StartFrame->_SPI1_Exchange8bit
    _Send_LED_Frame->_SPI1_Exchange8bit
    _Send_LED_EndFrame->_SPI1_Exchange8bit
    _SYSTEM_Initialize->_PIN_MANAGER_Initialize

Critical Paths under _main in BANK0

    _main->_rand

Critical Paths under _main in BANK1

    None.

Critical Paths under _main in BANK2

    None.

Critical Paths under _main in BANK3

    None.

Critical Paths under _main in BANK4

    None.

Critical Paths under _main in BANK5

    None.

Critical Paths under _main in BANK6

    None.

Critical Paths under _main in BANK7

    None.

Critical Paths under _main in BANK8

    None.

Critical Paths under _main in BANK9

    None.

Critical Paths under _main in BANK10

    None.

Critical Paths under _main in BANK11

    None.

Critical Paths under _main in BANK12

    None.

Critical Paths under _main in BANK13

    None.

Critical Paths under _main in BANK14

    None.

Critical Paths under _main in BANK15

    None.

Critical Paths under _main in BANK16

    None.

Critical Paths under _main in BANK17

    None.

Critical Paths under _main in BANK18

    None.

Critical Paths under _main in BANK19

    None.

Critical Paths under _main in BANK20

    None.

Critical Paths under _main in BANK21

    None.

Critical Paths under _main in BANK22

    None.

Critical Paths under _main in BANK23

    None.

Critical Paths under _main in BANK24

    None.

Critical Paths under _main in BANK25

    None.

Call Graph Tables:

 ---------------------------------------------------------------------------------
 (Depth) Function   	        Calls       Base Space   Used Autos Params    Refs
 ---------------------------------------------------------------------------------
 (0) _main                                                 4     4      0    1037
                                              4 BANK0      4     4      0
                  _SYSTEM_Initialize
                  _Send_LED_EndFrame
                     _Send_LED_Frame
                _Send_LED_StartFrame
                               _rand
 ---------------------------------------------------------------------------------
 (1) _rand                                                 6     4      2     244
                                             12 COMMON     2     0      2
                                              0 BANK0      4     4      0
                             ___lmul
 ---------------------------------------------------------------------------------
 (2) ___lmul                                              12     4      8     244
                                              0 COMMON    12     4      8
 ---------------------------------------------------------------------------------
 (1) _Send_LED_StartFrame                                  3     3      0      68
                                              1 COMMON     3     3      0
                  _SPI1_Exchange8bit
 ---------------------------------------------------------------------------------
 (1) _Send_LED_Frame                                       4     1      3     566
                                              1 COMMON     4     1      3
                  _SPI1_Exchange8bit
 ---------------------------------------------------------------------------------
 (1) _Send_LED_EndFrame                                    3     3      0      68
                                              1 COMMON     3     3      0
                  _SPI1_Exchange8bit
 ---------------------------------------------------------------------------------
 (2) _SPI1_Exchange8bit                                    1     1      0      22
                                              0 COMMON     1     1      0
 ---------------------------------------------------------------------------------
 (1) _SYSTEM_Initialize                                    0     0      0      23
              _OSCILLATOR_Initialize
             _PIN_MANAGER_Initialize
                    _SPI1_Initialize
                     _WDT_Initialize
 ---------------------------------------------------------------------------------
 (2) _WDT_Initialize                                       0     0      0       0
 ---------------------------------------------------------------------------------
 (2) _SPI1_Initialize                                      0     0      0       0
 ---------------------------------------------------------------------------------
 (2) _PIN_MANAGER_Initialize                               1     1      0      23
                                              0 COMMON     1     1      0
 ---------------------------------------------------------------------------------
 (2) _OSCILLATOR_Initialize                                0     0      0       0
 ---------------------------------------------------------------------------------
 Estimated maximum stack depth 2
 ---------------------------------------------------------------------------------

 Call Graph Graphs:

 _main (ROOT)
   _SYSTEM_Initialize
     _OSCILLATOR_Initialize
     _PIN_MANAGER_Initialize
     _SPI1_Initialize
     _WDT_Initialize
   _Send_LED_EndFrame
     _SPI1_Exchange8bit
   _Send_LED_Frame
     _SPI1_Exchange8bit
   _Send_LED_StartFrame
     _SPI1_Exchange8bit
   _rand
     ___lmul

 Address spaces:
Name               Size   Autos  Total    Cost      Usage
BIGRAM             7F0      0       0       0        0.0%
EEDATA             100      0       0       0        0.0%
NULL                 0      0       0       0        0.0%
CODE                 0      0       0       0        0.0%
BITCOMMON            E      0       0       1        0.0%
BITSFR0              0      0       0       1        0.0%
SFR0                 0      0       0       1        0.0%
COMMON               E      E       E       2      100.0%
BITSFR1              0      0       0       2        0.0%
SFR1                 0      0       0       2        0.0%
BITSFR2              0      0       0       3        0.0%
SFR2                 0      0       0       3        0.0%
STACK                0      0       0       3        0.0%
BITBANK0            50      0       0       4        0.0%
BITSFR3              0      0       0       4        0.0%
SFR3                 0      0       0       4        0.0%
BANK0               50      8      13       5       23.8%
BITSFR4              0      0       0       5        0.0%
SFR4                 0      0       0       5        0.0%
BITBANK1            50      0       0       6        0.0%
BITSFR5              0      0       0       6        0.0%
SFR5                 0      0       0       6        0.0%
BANK1               50      0       0       7        0.0%
BITSFR6              0      0       0       7        0.0%
SFR6                 0      0       0       7        0.0%
BITBANK2            50      0       0       8        0.0%
BITSFR7              0      0       0       8        0.0%
SFR7                 0      0       0       8        0.0%
BANK2               50      0       0       9        0.0%
BITSFR8              0      0       0       9        0.0%
SFR8                 0      0       0       9        0.0%
BITBANK3            50      0       0      10        0.0%
BITSFR9              0      0       0      10        0.0%
SFR9                 0      0       0      10        0.0%
BANK3               50      0       0      11        0.0%
BITSFR10             0      0       0      11        0.0%
SFR10                0      0       0      11        0.0%
BITBANK4            50      0       0      12        0.0%
BITSFR11             0      0       0      12        0.0%
SFR11                0      0       0      12        0.0%
BANK4               50      0       0      13        0.0%
BITSFR12             0      0       0      13        0.0%
SFR12                0      0       0      13        0.0%
BITSFR13             0      0       0      14        0.0%
SFR13                0      0       0      14        0.0%
ABS                  0      0      21      14        0.0%
BITBANK5            50      0       0      15        0.0%
BITSFR14             0      0       0      15        0.0%
SFR14                0      0       0      15        0.0%
BANK5               50      0       0      16        0.0%
BITSFR15             0      0       0      16        0.0%
SFR15                0      0       0      16        0.0%
BITBANK6            50      0       0      17        0.0%
BITSFR16             0      0       0      17        0.0%
SFR16                0      0       0      17        0.0%
BANK6               50      0       0      18        0.0%
BITSFR17             0      0       0      18        0.0%
SFR17                0      0       0      18        0.0%
BITBANK7            50      0       0      19        0.0%
BITSFR18             0      0       0      19        0.0%
SFR18                0      0       0      19        0.0%
BANK7               50      0       0      20        0.0%
BITSFR19             0      0       0      20        0.0%
SFR19                0      0       0      20        0.0%
BITBANK8            50      0       0      21        0.0%
BITSFR20             0      0       0      21        0.0%
SFR20                0      0       0      21        0.0%
BANK8               50      0       0      22        0.0%
BITSFR21             0      0       0      22        0.0%
SFR21                0      0       0      22        0.0%
BITBANK9            50      0       0      23        0.0%
BITSFR22             0      0       0      23        0.0%
SFR22                0      0       0      23        0.0%
BANK9               50      0       0      24        0.0%
BITSFR23             0      0       0      24        0.0%
SFR23                0      0       0      24        0.0%
BITBANK10           50      0       0      25        0.0%
BITSFR24             0      0       0      25        0.0%
SFR24                0      0       0      25        0.0%
BANK10              50      0       0      26        0.0%
BITSFR25             0      0       0      26        0.0%
SFR25                0      0       0      26        0.0%
BITBANK11           50      0       0      27        0.0%
BITSFR26             0      0       0      27        0.0%
SFR26                0      0       0      27        0.0%
BITSFR27             0      0       0      28        0.0%
SFR27                0      0       0      28        0.0%
DATA                 0      0      21      28        0.0%
BANK11              50      0       0      29        0.0%
BITSFR28             0      0       0      29        0.0%
SFR28                0      0       0      29        0.0%
BITBANK12           50      0       0      30        0.0%
BITSFR29             0      0       0      30        0.0%
SFR29                0      0       0      30        0.0%
BANK12              50      0       0      31        0.0%
BITSFR30             0      0       0      31        0.0%
SFR30                0      0       0      31        0.0%
BITBANK13           50      0       0      32        0.0%
BITSFR31             0      0       0      32        0.0%
SFR31                0      0       0      32        0.0%
BANK13              50      0       0      33        0.0%
BITBANK14           50      0       0      34        0.0%
BANK14              50      0       0      35        0.0%
BITBANK15           50      0       0      36        0.0%
BANK15              50      0       0      37        0.0%
BITBANK16           50      0       0      38        0.0%
BANK16              50      0       0      39        0.0%
BITBANK17           50      0       0      40        0.0%
BANK17              50      0       0      41        0.0%
BITBANK18           50      0       0      42        0.0%
BANK18              50      0       0      43        0.0%
BITBANK19           50      0       0      44        0.0%
BANK19              50      0       0      45        0.0%
BITBANK20           50      0       0      46        0.0%
BANK20              50      0       0      47        0.0%
BITBANK21           50      0       0      48        0.0%
BANK21              50      0       0      49        0.0%
BITBANK22           50      0       0      50        0.0%
BANK22              50      0       0      51        0.0%
BITBANK23           50      0       0      52        0.0%
BANK23              50      0       0      53        0.0%
BITBANK24           50      0       0      54        0.0%
BANK24              50      0       0      55        0.0%
BITBANK25           20      0       0      56        0.0%
BANK25              20      0       0      57        0.0%


Microchip Technology PIC Macro Assembler V2.35 build 20211206165544 
Symbol Table                                                                                   Fri Feb 24 10:08:02 2023

             _SPI1_Exchange8bit 0609              ?_SPI1_Exchange8bit 0070                              l23 0620  
                            l26 0608                              l29 05FA                              l76 070B  
                            l94 0600                              l97 060E                             l100 0613  
                           l151 0633                             l161 064B                             l156 0663  
                           l177 0743                             l169 071B                             l196 07AC  
                           l369 0696                             l819 06CB                             _GIE 005F  
                           u300 0663                             u301 0662                             u310 064B  
                           u311 064A                             u320 06C5                             u400 0723  
                           u305 065F                             u401 0722                             u250 0612  
                           u410 073E                             u251 0611                             u315 0647  
                           u411 073D                             u260 0670                             u420 074B  
                           u261 066F                             u325 06C1                             u421 074A  
                           u430 0758                             u431 0757                             u440 0767  
                           u441 0766                             u290 068E                             u450 0774  
                           u291 068D                             u275 0679                             u451 0773  
                           u460 0783                             u285 0680                             u461 0782  
                           u470 07B7                             u390 0716                             u471 07B6  
                           u391 0715                             u480 07DA                             u481 07D9  
                           u497 07E3             ??_SPI1_Exchange8bit 0070                             _red 0032  
                           wreg 0009                            l1101 06EA                            l1111 06FC  
                          l1103 06F0                            l1121 0607                            l1113 0705  
                          l1105 06F1                            l1115 0706                            l1107 06F3  
                          l1123 05F7                            l1131 060A                            l1117 0601  
                          l1109 06F7                            l1125 05FB                            l1133 060C  
                          l1141 066C                            l1221 071E                            l1119 0605  
                          l1127 05FD                            l1135 0612                            l1143 0670  
                          l1231 0739                            l1223 0723                            l1215 070C  
                          l1129 05FF                            l1153 0614                            l1145 0678  
                          l1241 0753                            l1233 073E                            l1225 0726  
                          l1217 0710                            l1091 06D5                            l1155 0622  
                          l1163 064E                            l1147 067F                            l1139 0664  
                          l1251 076A                            l1243 0758                            l1235 0746  
                          l1219 0716                            l1093 06D7                            l1085 06CC  
                          l1165 0652                            l1157 064C                            l1149 068E  
                          l1181 0697                            l1341 0790                            l1261 0783  
                          l1253 076F                            l1245 075D                            l1237 074B  
                          l1229 0728                            l1095 06DA                            l1087 06D0  
                          l1175 0636                            l1167 0656                            l1183 06B8  
                          l1271 07AF                            l1263 0786                            l1255 0774  
                          l1247 0762                            l1239 074E                            l1097 06DC  
                          l1089 06D3                            l1177 063A                            l1169 0634  
                          l1281 07C8                            l1257 0779                            l1249 0767  
                          l1099 06E6                            l1179 063E                            l1283 07CF  
                          l1259 077E                            l1339 0731                            l1267 0788  
                          l1285 07D4                            l1277 07B1                            l1269 07A4  
                          l1287 07DA                            l1279 07B7                            l1289 07DD  
              ??_Send_LED_Frame 0074                            _LATA 010C                            _LATB 010D  
                          _LATC 010E                            _WPUA 020C                            _WPUB 020D  
                          _WPUC 020E                            _blue 0024                            _main 070C  
                          _rand 0697                            _seed 0025                            _step 0031  
                          btemp 007E                            start 0002       __end_of_SPI1_Exchange8bit 0614  
 __end_of_OSCILLATOR_Initialize 0609                           ?_main 0070                           ?_rand 007C  
                         _OSCEN 091D                           _TRISA 008C                           _TRISB 008D  
                         _TRISC 008E             ___lmul@multiplicand 0074                  _WDT_Initialize 05F7  
                         _green 0023                           status 0003                           wtemp0 007E  
               __initialization 07EC                    __end_of_main 07EC                    __end_of_rand 06CC  
                        ??_main 002D                          ??_rand 0029          __end_of_WDT_Initialize 05FB  
                        _ANSELA 018C                          _ANSELB 018D                          _ANSELC 018E  
                        _ODCONA 028C                          _ODCONB 028D                          _ODCONC 028E  
                        _OSCFRQ 091F                          _WDTCON 0097           SPI1_Exchange8bit@data 0070  
                        ___lmul 0664                 ?_WDT_Initialize 0070               _SYSTEM_Initialize 0614  
       __end_of__initialization 07FD              ?_SYSTEM_Initialize 0070                    _change_color 0022  
                __pcstackCOMMON 0070                    __pidataBANK0 05F5             ??_SYSTEM_Initialize 0071  
             ??_SPI1_Initialize 0070       __end_of_SYSTEM_Initialize 0621                      __pbssBANK0 0020  
             _Send_LED_EndFrame 0634              ?_Send_LED_EndFrame 0070                  _SSP1DATPPSbits 0E21  
                    __pmaintext 070C                         ?___lmul 0070             ??_Send_LED_EndFrame 0071  
          Send_LED_StartFrame@i 0072                  ___lmul@product 0078                  _SSP1CLKPPSbits 0E20  
                       _OSCCON1 0919                         _OSCCON3 091B                         _OSCTUNE 091E  
                       _SSP1ADD 0212                         _PPSLOCK 0E0F                         _SSP1BUF 0211  
     __end_of_Send_LED_EndFrame 064C                         __ptext1 0697                         __ptext2 0664  
                       __ptext3 064C                         __ptext4 0621                         __ptext5 0634  
                       __ptext6 0609                         __ptext7 0614                         __ptext8 05F7  
                       __ptext9 05FB                         _led_run 0020           _OSCILLATOR_Initialize 0601  
      ??_PIN_MANAGER_Initialize 0070                         main@led 0030            end_of_initialization 07FD  
           _Send_LED_StartFrame 064C            ?_Send_LED_StartFrame 0070                ??_WDT_Initialize 0070  
               _SPI1_Initialize 05FB         Send_LED_Frame@intensity 0074           ??_Send_LED_StartFrame 0071  
                __end_of___lmul 0697          ?_OSCILLATOR_Initialize 0070             start_initialization 07EC  
          __end_of_NumberOfLEDs 0802                        ??___lmul 0078                     __pdataBANK0 0031  
                     ___latbits 0003                   __pcstackBANK0 0029         __end_of_SPI1_Initialize 0601  
        _PIN_MANAGER_Initialize 06CC                  _Send_LED_Frame 0621                       _direction 0021  
        __end_of_Send_LED_Frame 0634                        _SSP1CON1 0215                        _SSP1STAT 0214  
              ?_SPI1_Initialize 0070               ___lmul@multiplier 0070                 ?_Send_LED_Frame 0071  
       ??_OSCILLATOR_Initialize 0070                    _NumberOfLEDs 0800                        __ptext10 06CC  
                      __ptext11 0601                    _SSP1CON1bits 0215     __end_of_Send_LED_StartFrame 0664  
                    _RB4PPSbits 0E9C                      _RB6PPSbits 0E9E                    _SSP1STATbits 0214  
   PIN_MANAGER_Initialize@state 0070             Send_LED_Frame@green 0072              Send_LED_EndFrame@i 0072  
       ?_PIN_MANAGER_Initialize 0070                     _PPSLOCKbits 0E0F                   __pstringtext1 0800  
            Send_LED_Frame@blue 0071               Send_LED_Frame@red 0073  __end_of_PIN_MANAGER_Initialize 070C  
