

Microchip MPLAB XC8 Assembler V2.35 build 20211206165544 
                                                                                               Fri Feb 24 17:04:10 2023

Microchip MPLAB XC8 C Compiler v2.35 (Free license) build 20211206165544 Og1 
     1                           	processor	16F18346
     2                           	pagewidth 120
     3                           	opt	flic
     4                           	psect	idataCOMMON,global,class=CODE,delta=2,noexec
     5                           	psect	idataBANK0,global,class=CODE,delta=2,noexec
     6                           	psect	stringtext1,global,class=STRCODE,delta=2,noexec
     7                           	psect	cinit,global,class=CODE,merge=1,delta=2
     8                           	psect	dataCOMMON,global,class=COMMON,space=1,delta=1,noexec
     9                           	psect	bssBANK0,global,class=BANK0,space=1,delta=1,noexec
    10                           	psect	dataBANK0,global,class=BANK0,space=1,delta=1,noexec
    11                           	psect	clrtext,global,class=CODE,delta=2
    12                           	psect	cstackCOMMON,global,class=COMMON,space=1,delta=1,noexec
    13                           	psect	cstackBANK0,global,class=BANK0,space=1,delta=1,noexec
    14                           	psect	maintext,global,class=CODE,merge=1,split=1,delta=2
    15                           	psect	text1,local,class=CODE,merge=1,delta=2
    16                           	psect	text2,local,class=CODE,merge=1,delta=2,group=2
    17                           	psect	text3,local,class=CODE,merge=1,delta=2,group=2
    18                           	psect	text4,local,class=CODE,merge=1,delta=2
    19                           	psect	text5,local,class=CODE,merge=1,delta=2
    20                           	psect	text6,local,class=CODE,merge=1,delta=2
    21                           	psect	text7,local,class=CODE,merge=1,delta=2
    22                           	psect	text8,local,class=CODE,merge=1,delta=2
    23                           	psect	text9,local,class=CODE,merge=1,delta=2
    24                           	psect	text10,local,class=CODE,merge=1,delta=2
    25                           	psect	text11,local,class=CODE,merge=1,delta=2
    26                           	psect	text12,local,class=CODE,merge=1,delta=2
    27                           	psect	text13,local,class=CODE,merge=1,delta=2
    28                           	psect	text14,local,class=CODE,merge=1,delta=2
    29                           	psect	text15,local,class=CODE,merge=1,delta=2
    30                           	psect	text16,local,class=CODE,merge=1,delta=2
    31                           	psect	text17,local,class=CODE,merge=1,delta=2
    32                           	psect	text18,local,class=CODE,merge=1,delta=2
    33                           	psect	text19,local,class=CODE,merge=1,delta=2
    34                           	psect	idloc,global,abs,ovrld,class=IDLOC,space=5,delta=2,noexec
    35                           	psect	config,global,abs,ovrld,class=CONFIG,space=4,delta=2,noexec
    36                           	dabs	1,0x7E,2
    37  0000                     
    38                           ; Version 2.40
    39                           ; Generated 02/12/2021 GMT
    40                           ; 
    41                           ; Copyright © 2021, Microchip Technology Inc. and its subsidiaries ("Microchip")
    42                           ; All rights reserved.
    43                           ; 
    44                           ; This software is developed by Microchip Technology Inc. and its subsidiaries ("Microch
      +                          ip").
    45                           ; 
    46                           ; Redistribution and use in source and binary forms, with or without modification, are
    47                           ; permitted provided that the following conditions are met:
    48                           ; 
    49                           ;     1. Redistributions of source code must retain the above copyright notice, this lis
      +                          t of
    50                           ;        conditions and the following disclaimer.
    51                           ; 
    52                           ;     2. Redistributions in binary form must reproduce the above copyright notice, this 
      +                          list
    53                           ;        of conditions and the following disclaimer in the documentation and/or other
    54                           ;        materials provided with the distribution. Publication is not required when
    55                           ;        this file is used in an embedded application.
    56                           ; 
    57                           ;     3. Microchip's name may not be used to endorse or promote products derived from th
      +                          is
    58                           ;        software without specific prior written permission.
    59                           ; 
    60                           ; THIS SOFTWARE IS PROVIDED BY MICROCHIP "AS IS" AND ANY EXPRESS OR IMPLIED WARRANTIES,
    61                           ; INCLUDING, BUT NOT LIMITED TO, THE IMPLIED WARRANTIES OF MERCHANTABILITY AND FITNESS F
      +                          OR
    62                           ; PURPOSE ARE DISCLAIMED.  IN NO EVENT SHALL MICROCHIP BE LIABLE FOR ANY DIRECT, INDIREC
      +                          T,
    63                           ; INCIDENTAL, SPECIAL, EXEMPLARY, OR CONSEQUENTIAL DAMAGES (INCLUDING BUT NOT LIMITED TO
    64                           ; PROCUREMENT OF SUBSTITUTE GOODS OR SERVICES; LOSS OF USE, DATA OR PROFITS; OR BUSINESS
    65                           ; INTERRUPTION) HOWSOEVER CAUSED AND ON ANY THEORY OF LIABILITY, WHETHER IN CONTRACT, ST
      +                          RICT
    66                           ; LIABILITY, OR TORT (INCLUDING NEGLIGENCE OR OTHERWISE) ARISING IN ANY WAY OUT OF THE U
      +                          SE OF
    67                           ; THIS SOFTWARE, EVEN IF ADVISED OF THE POSSIBILITY OF SUCH DAMAGE.
    68                           ; 
    69                           ; 
    70                           ; Code-generator required, PIC16F18346 Definitions
    71                           ; 
    72                           ; SFR Addresses
    73  0000                     	;# 
    74  0001                     	;# 
    75  0002                     	;# 
    76  0003                     	;# 
    77  0004                     	;# 
    78  0005                     	;# 
    79  0006                     	;# 
    80  0007                     	;# 
    81  0008                     	;# 
    82  0009                     	;# 
    83  000A                     	;# 
    84  000B                     	;# 
    85  000C                     	;# 
    86  000D                     	;# 
    87  000E                     	;# 
    88  0010                     	;# 
    89  0011                     	;# 
    90  0012                     	;# 
    91  0013                     	;# 
    92  0014                     	;# 
    93  0015                     	;# 
    94  0015                     	;# 
    95  0016                     	;# 
    96  0016                     	;# 
    97  0017                     	;# 
    98  0018                     	;# 
    99  0019                     	;# 
   100  0019                     	;# 
   101  001A                     	;# 
   102  001B                     	;# 
   103  001C                     	;# 
   104  001D                     	;# 
   105  001E                     	;# 
   106  001F                     	;# 
   107  008C                     	;# 
   108  008D                     	;# 
   109  008E                     	;# 
   110  0090                     	;# 
   111  0091                     	;# 
   112  0092                     	;# 
   113  0093                     	;# 
   114  0094                     	;# 
   115  0097                     	;# 
   116  009B                     	;# 
   117  009B                     	;# 
   118  009C                     	;# 
   119  009D                     	;# 
   120  009E                     	;# 
   121  009F                     	;# 
   122  010C                     	;# 
   123  010D                     	;# 
   124  010E                     	;# 
   125  0111                     	;# 
   126  0112                     	;# 
   127  0113                     	;# 
   128  0114                     	;# 
   129  0115                     	;# 
   130  0116                     	;# 
   131  0117                     	;# 
   132  0118                     	;# 
   133  0119                     	;# 
   134  018C                     	;# 
   135  018D                     	;# 
   136  018E                     	;# 
   137  0197                     	;# 
   138  0199                     	;# 
   139  0199                     	;# 
   140  0199                     	;# 
   141  019A                     	;# 
   142  019A                     	;# 
   143  019A                     	;# 
   144  019B                     	;# 
   145  019B                     	;# 
   146  019B                     	;# 
   147  019B                     	;# 
   148  019B                     	;# 
   149  019C                     	;# 
   150  019C                     	;# 
   151  019C                     	;# 
   152  019D                     	;# 
   153  019D                     	;# 
   154  019D                     	;# 
   155  019E                     	;# 
   156  019E                     	;# 
   157  019E                     	;# 
   158  019F                     	;# 
   159  019F                     	;# 
   160  019F                     	;# 
   161  019F                     	;# 
   162  019F                     	;# 
   163  020C                     	;# 
   164  020D                     	;# 
   165  020E                     	;# 
   166  0211                     	;# 
   167  0211                     	;# 
   168  0212                     	;# 
   169  0212                     	;# 
   170  0213                     	;# 
   171  0213                     	;# 
   172  0214                     	;# 
   173  0214                     	;# 
   174  0215                     	;# 
   175  0215                     	;# 
   176  0215                     	;# 
   177  0215                     	;# 
   178  0216                     	;# 
   179  0216                     	;# 
   180  0217                     	;# 
   181  0217                     	;# 
   182  0219                     	;# 
   183  021A                     	;# 
   184  021B                     	;# 
   185  021C                     	;# 
   186  021D                     	;# 
   187  021D                     	;# 
   188  021E                     	;# 
   189  021F                     	;# 
   190  028C                     	;# 
   191  028D                     	;# 
   192  028E                     	;# 
   193  0291                     	;# 
   194  0291                     	;# 
   195  0292                     	;# 
   196  0293                     	;# 
   197  0294                     	;# 
   198  0295                     	;# 
   199  0295                     	;# 
   200  0296                     	;# 
   201  0297                     	;# 
   202  0298                     	;# 
   203  029F                     	;# 
   204  030C                     	;# 
   205  030D                     	;# 
   206  030E                     	;# 
   207  0311                     	;# 
   208  0311                     	;# 
   209  0312                     	;# 
   210  0313                     	;# 
   211  0314                     	;# 
   212  0315                     	;# 
   213  0315                     	;# 
   214  0316                     	;# 
   215  0317                     	;# 
   216  0318                     	;# 
   217  038C                     	;# 
   218  038D                     	;# 
   219  038E                     	;# 
   220  0391                     	;# 
   221  0392                     	;# 
   222  0393                     	;# 
   223  0394                     	;# 
   224  0395                     	;# 
   225  0396                     	;# 
   226  0397                     	;# 
   227  0398                     	;# 
   228  0399                     	;# 
   229  039A                     	;# 
   230  039C                     	;# 
   231  039D                     	;# 
   232  039E                     	;# 
   233  039F                     	;# 
   234  0411                     	;# 
   235  0411                     	;# 
   236  0412                     	;# 
   237  0413                     	;# 
   238  0414                     	;# 
   239  0415                     	;# 
   240  0416                     	;# 
   241  0417                     	;# 
   242  0418                     	;# 
   243  0418                     	;# 
   244  0419                     	;# 
   245  041A                     	;# 
   246  041B                     	;# 
   247  041C                     	;# 
   248  041D                     	;# 
   249  041E                     	;# 
   250  041F                     	;# 
   251  0498                     	;# 
   252  0498                     	;# 
   253  0499                     	;# 
   254  049A                     	;# 
   255  049B                     	;# 
   256  049B                     	;# 
   257  049C                     	;# 
   258  049D                     	;# 
   259  049E                     	;# 
   260  049F                     	;# 
   261  0617                     	;# 
   262  0618                     	;# 
   263  0619                     	;# 
   264  0619                     	;# 
   265  061A                     	;# 
   266  061B                     	;# 
   267  061C                     	;# 
   268  061C                     	;# 
   269  061F                     	;# 
   270  0691                     	;# 
   271  0692                     	;# 
   272  0693                     	;# 
   273  0694                     	;# 
   274  0695                     	;# 
   275  0696                     	;# 
   276  0697                     	;# 
   277  0698                     	;# 
   278  0699                     	;# 
   279  0711                     	;# 
   280  0712                     	;# 
   281  0713                     	;# 
   282  0714                     	;# 
   283  0715                     	;# 
   284  0716                     	;# 
   285  0717                     	;# 
   286  0718                     	;# 
   287  0719                     	;# 
   288  0891                     	;# 
   289  0891                     	;# 
   290  0891                     	;# 
   291  0891                     	;# 
   292  0891                     	;# 
   293  0891                     	;# 
   294  0892                     	;# 
   295  0892                     	;# 
   296  0892                     	;# 
   297  0893                     	;# 
   298  0893                     	;# 
   299  0893                     	;# 
   300  0893                     	;# 
   301  0893                     	;# 
   302  0893                     	;# 
   303  0894                     	;# 
   304  0894                     	;# 
   305  0894                     	;# 
   306  0895                     	;# 
   307  0895                     	;# 
   308  0895                     	;# 
   309  0896                     	;# 
   310  0896                     	;# 
   311  0896                     	;# 
   312  089B                     	;# 
   313  0911                     	;# 
   314  0912                     	;# 
   315  0913                     	;# 
   316  0914                     	;# 
   317  0915                     	;# 
   318  0916                     	;# 
   319  0918                     	;# 
   320  0919                     	;# 
   321  091A                     	;# 
   322  091B                     	;# 
   323  091C                     	;# 
   324  091D                     	;# 
   325  091E                     	;# 
   326  091F                     	;# 
   327  0E0F                     	;# 
   328  0E10                     	;# 
   329  0E11                     	;# 
   330  0E12                     	;# 
   331  0E13                     	;# 
   332  0E14                     	;# 
   333  0E15                     	;# 
   334  0E16                     	;# 
   335  0E17                     	;# 
   336  0E18                     	;# 
   337  0E19                     	;# 
   338  0E1A                     	;# 
   339  0E1B                     	;# 
   340  0E1C                     	;# 
   341  0E1D                     	;# 
   342  0E1E                     	;# 
   343  0E1F                     	;# 
   344  0E20                     	;# 
   345  0E21                     	;# 
   346  0E22                     	;# 
   347  0E24                     	;# 
   348  0E25                     	;# 
   349  0E28                     	;# 
   350  0E29                     	;# 
   351  0E2A                     	;# 
   352  0E2B                     	;# 
   353  0E2C                     	;# 
   354  0E2D                     	;# 
   355  0E2E                     	;# 
   356  0E2F                     	;# 
   357  0E90                     	;# 
   358  0E91                     	;# 
   359  0E92                     	;# 
   360  0E94                     	;# 
   361  0E95                     	;# 
   362  0E9C                     	;# 
   363  0E9D                     	;# 
   364  0E9E                     	;# 
   365  0E9F                     	;# 
   366  0EA0                     	;# 
   367  0EA1                     	;# 
   368  0EA2                     	;# 
   369  0EA3                     	;# 
   370  0EA4                     	;# 
   371  0EA5                     	;# 
   372  0EA6                     	;# 
   373  0EA7                     	;# 
   374  0F0F                     	;# 
   375  0F10                     	;# 
   376  0F11                     	;# 
   377  0F12                     	;# 
   378  0F13                     	;# 
   379  0F14                     	;# 
   380  0F15                     	;# 
   381  0F16                     	;# 
   382  0F17                     	;# 
   383  0F18                     	;# 
   384  0F19                     	;# 
   385  0F1A                     	;# 
   386  0F1B                     	;# 
   387  0F1C                     	;# 
   388  0F1D                     	;# 
   389  0F1E                     	;# 
   390  0F1F                     	;# 
   391  0F20                     	;# 
   392  0F21                     	;# 
   393  0F22                     	;# 
   394  0F23                     	;# 
   395  0F24                     	;# 
   396  0F25                     	;# 
   397  0F26                     	;# 
   398  0F27                     	;# 
   399  0F28                     	;# 
   400  0F29                     	;# 
   401  0F2A                     	;# 
   402  0F2B                     	;# 
   403  0F2C                     	;# 
   404  0F2D                     	;# 
   405  0F2E                     	;# 
   406  0F2F                     	;# 
   407  0F30                     	;# 
   408  0F31                     	;# 
   409  0F32                     	;# 
   410  0F33                     	;# 
   411  0F34                     	;# 
   412  0F35                     	;# 
   413  0F36                     	;# 
   414  0F37                     	;# 
   415  0FE4                     	;# 
   416  0FE5                     	;# 
   417  0FE6                     	;# 
   418  0FE7                     	;# 
   419  0FE8                     	;# 
   420  0FE9                     	;# 
   421  0FEA                     	;# 
   422  0FEB                     	;# 
   423  0FED                     	;# 
   424  0FEE                     	;# 
   425  0FEF                     	;# 
   426  0000                     	;# 
   427  0001                     	;# 
   428  0002                     	;# 
   429  0003                     	;# 
   430  0004                     	;# 
   431  0005                     	;# 
   432  0006                     	;# 
   433  0007                     	;# 
   434  0008                     	;# 
   435  0009                     	;# 
   436  000A                     	;# 
   437  000B                     	;# 
   438  000C                     	;# 
   439  000D                     	;# 
   440  000E                     	;# 
   441  0010                     	;# 
   442  0011                     	;# 
   443  0012                     	;# 
   444  0013                     	;# 
   445  0014                     	;# 
   446  0015                     	;# 
   447  0015                     	;# 
   448  0016                     	;# 
   449  0016                     	;# 
   450  0017                     	;# 
   451  0018                     	;# 
   452  0019                     	;# 
   453  0019                     	;# 
   454  001A                     	;# 
   455  001B                     	;# 
   456  001C                     	;# 
   457  001D                     	;# 
   458  001E                     	;# 
   459  001F                     	;# 
   460  008C                     	;# 
   461  008D                     	;# 
   462  008E                     	;# 
   463  0090                     	;# 
   464  0091                     	;# 
   465  0092                     	;# 
   466  0093                     	;# 
   467  0094                     	;# 
   468  0097                     	;# 
   469  009B                     	;# 
   470  009B                     	;# 
   471  009C                     	;# 
   472  009D                     	;# 
   473  009E                     	;# 
   474  009F                     	;# 
   475  010C                     	;# 
   476  010D                     	;# 
   477  010E                     	;# 
   478  0111                     	;# 
   479  0112                     	;# 
   480  0113                     	;# 
   481  0114                     	;# 
   482  0115                     	;# 
   483  0116                     	;# 
   484  0117                     	;# 
   485  0118                     	;# 
   486  0119                     	;# 
   487  018C                     	;# 
   488  018D                     	;# 
   489  018E                     	;# 
   490  0197                     	;# 
   491  0199                     	;# 
   492  0199                     	;# 
   493  0199                     	;# 
   494  019A                     	;# 
   495  019A                     	;# 
   496  019A                     	;# 
   497  019B                     	;# 
   498  019B                     	;# 
   499  019B                     	;# 
   500  019B                     	;# 
   501  019B                     	;# 
   502  019C                     	;# 
   503  019C                     	;# 
   504  019C                     	;# 
   505  019D                     	;# 
   506  019D                     	;# 
   507  019D                     	;# 
   508  019E                     	;# 
   509  019E                     	;# 
   510  019E                     	;# 
   511  019F                     	;# 
   512  019F                     	;# 
   513  019F                     	;# 
   514  019F                     	;# 
   515  019F                     	;# 
   516  020C                     	;# 
   517  020D                     	;# 
   518  020E                     	;# 
   519  0211                     	;# 
   520  0211                     	;# 
   521  0212                     	;# 
   522  0212                     	;# 
   523  0213                     	;# 
   524  0213                     	;# 
   525  0214                     	;# 
   526  0214                     	;# 
   527  0215                     	;# 
   528  0215                     	;# 
   529  0215                     	;# 
   530  0215                     	;# 
   531  0216                     	;# 
   532  0216                     	;# 
   533  0217                     	;# 
   534  0217                     	;# 
   535  0219                     	;# 
   536  021A                     	;# 
   537  021B                     	;# 
   538  021C                     	;# 
   539  021D                     	;# 
   540  021D                     	;# 
   541  021E                     	;# 
   542  021F                     	;# 
   543  028C                     	;# 
   544  028D                     	;# 
   545  028E                     	;# 
   546  0291                     	;# 
   547  0291                     	;# 
   548  0292                     	;# 
   549  0293                     	;# 
   550  0294                     	;# 
   551  0295                     	;# 
   552  0295                     	;# 
   553  0296                     	;# 
   554  0297                     	;# 
   555  0298                     	;# 
   556  029F                     	;# 
   557  030C                     	;# 
   558  030D                     	;# 
   559  030E                     	;# 
   560  0311                     	;# 
   561  0311                     	;# 
   562  0312                     	;# 
   563  0313                     	;# 
   564  0314                     	;# 
   565  0315                     	;# 
   566  0315                     	;# 
   567  0316                     	;# 
   568  0317                     	;# 
   569  0318                     	;# 
   570  038C                     	;# 
   571  038D                     	;# 
   572  038E                     	;# 
   573  0391                     	;# 
   574  0392                     	;# 
   575  0393                     	;# 
   576  0394                     	;# 
   577  0395                     	;# 
   578  0396                     	;# 
   579  0397                     	;# 
   580  0398                     	;# 
   581  0399                     	;# 
   582  039A                     	;# 
   583  039C                     	;# 
   584  039D                     	;# 
   585  039E                     	;# 
   586  039F                     	;# 
   587  0411                     	;# 
   588  0411                     	;# 
   589  0412                     	;# 
   590  0413                     	;# 
   591  0414                     	;# 
   592  0415                     	;# 
   593  0416                     	;# 
   594  0417                     	;# 
   595  0418                     	;# 
   596  0418                     	;# 
   597  0419                     	;# 
   598  041A                     	;# 
   599  041B                     	;# 
   600  041C                     	;# 
   601  041D                     	;# 
   602  041E                     	;# 
   603  041F                     	;# 
   604  0498                     	;# 
   605  0498                     	;# 
   606  0499                     	;# 
   607  049A                     	;# 
   608  049B                     	;# 
   609  049B                     	;# 
   610  049C                     	;# 
   611  049D                     	;# 
   612  049E                     	;# 
   613  049F                     	;# 
   614  0617                     	;# 
   615  0618                     	;# 
   616  0619                     	;# 
   617  0619                     	;# 
   618  061A                     	;# 
   619  061B                     	;# 
   620  061C                     	;# 
   621  061C                     	;# 
   622  061F                     	;# 
   623  0691                     	;# 
   624  0692                     	;# 
   625  0693                     	;# 
   626  0694                     	;# 
   627  0695                     	;# 
   628  0696                     	;# 
   629  0697                     	;# 
   630  0698                     	;# 
   631  0699                     	;# 
   632  0711                     	;# 
   633  0712                     	;# 
   634  0713                     	;# 
   635  0714                     	;# 
   636  0715                     	;# 
   637  0716                     	;# 
   638  0717                     	;# 
   639  0718                     	;# 
   640  0719                     	;# 
   641  0891                     	;# 
   642  0891                     	;# 
   643  0891                     	;# 
   644  0891                     	;# 
   645  0891                     	;# 
   646  0891                     	;# 
   647  0892                     	;# 
   648  0892                     	;# 
   649  0892                     	;# 
   650  0893                     	;# 
   651  0893                     	;# 
   652  0893                     	;# 
   653  0893                     	;# 
   654  0893                     	;# 
   655  0893                     	;# 
   656  0894                     	;# 
   657  0894                     	;# 
   658  0894                     	;# 
   659  0895                     	;# 
   660  0895                     	;# 
   661  0895                     	;# 
   662  0896                     	;# 
   663  0896                     	;# 
   664  0896                     	;# 
   665  089B                     	;# 
   666  0911                     	;# 
   667  0912                     	;# 
   668  0913                     	;# 
   669  0914                     	;# 
   670  0915                     	;# 
   671  0916                     	;# 
   672  0918                     	;# 
   673  0919                     	;# 
   674  091A                     	;# 
   675  091B                     	;# 
   676  091C                     	;# 
   677  091D                     	;# 
   678  091E                     	;# 
   679  091F                     	;# 
   680  0E0F                     	;# 
   681  0E10                     	;# 
   682  0E11                     	;# 
   683  0E12                     	;# 
   684  0E13                     	;# 
   685  0E14                     	;# 
   686  0E15                     	;# 
   687  0E16                     	;# 
   688  0E17                     	;# 
   689  0E18                     	;# 
   690  0E19                     	;# 
   691  0E1A                     	;# 
   692  0E1B                     	;# 
   693  0E1C                     	;# 
   694  0E1D                     	;# 
   695  0E1E                     	;# 
   696  0E1F                     	;# 
   697  0E20                     	;# 
   698  0E21                     	;# 
   699  0E22                     	;# 
   700  0E24                     	;# 
   701  0E25                     	;# 
   702  0E28                     	;# 
   703  0E29                     	;# 
   704  0E2A                     	;# 
   705  0E2B                     	;# 
   706  0E2C                     	;# 
   707  0E2D                     	;# 
   708  0E2E                     	;# 
   709  0E2F                     	;# 
   710  0E90                     	;# 
   711  0E91                     	;# 
   712  0E92                     	;# 
   713  0E94                     	;# 
   714  0E95                     	;# 
   715  0E9C                     	;# 
   716  0E9D                     	;# 
   717  0E9E                     	;# 
   718  0E9F                     	;# 
   719  0EA0                     	;# 
   720  0EA1                     	;# 
   721  0EA2                     	;# 
   722  0EA3                     	;# 
   723  0EA4                     	;# 
   724  0EA5                     	;# 
   725  0EA6                     	;# 
   726  0EA7                     	;# 
   727  0F0F                     	;# 
   728  0F10                     	;# 
   729  0F11                     	;# 
   730  0F12                     	;# 
   731  0F13                     	;# 
   732  0F14                     	;# 
   733  0F15                     	;# 
   734  0F16                     	;# 
   735  0F17                     	;# 
   736  0F18                     	;# 
   737  0F19                     	;# 
   738  0F1A                     	;# 
   739  0F1B                     	;# 
   740  0F1C                     	;# 
   741  0F1D                     	;# 
   742  0F1E                     	;# 
   743  0F1F                     	;# 
   744  0F20                     	;# 
   745  0F21                     	;# 
   746  0F22                     	;# 
   747  0F23                     	;# 
   748  0F24                     	;# 
   749  0F25                     	;# 
   750  0F26                     	;# 
   751  0F27                     	;# 
   752  0F28                     	;# 
   753  0F29                     	;# 
   754  0F2A                     	;# 
   755  0F2B                     	;# 
   756  0F2C                     	;# 
   757  0F2D                     	;# 
   758  0F2E                     	;# 
   759  0F2F                     	;# 
   760  0F30                     	;# 
   761  0F31                     	;# 
   762  0F32                     	;# 
   763  0F33                     	;# 
   764  0F34                     	;# 
   765  0F35                     	;# 
   766  0F36                     	;# 
   767  0F37                     	;# 
   768  0FE4                     	;# 
   769  0FE5                     	;# 
   770  0FE6                     	;# 
   771  0FE7                     	;# 
   772  0FE8                     	;# 
   773  0FE9                     	;# 
   774  0FEA                     	;# 
   775  0FEB                     	;# 
   776  0FED                     	;# 
   777  0FEE                     	;# 
   778  0FEF                     	;# 
   779  0000                     	;# 
   780  0001                     	;# 
   781  0002                     	;# 
   782  0003                     	;# 
   783  0004                     	;# 
   784  0005                     	;# 
   785  0006                     	;# 
   786  0007                     	;# 
   787  0008                     	;# 
   788  0009                     	;# 
   789  000A                     	;# 
   790  000B                     	;# 
   791  000C                     	;# 
   792  000D                     	;# 
   793  000E                     	;# 
   794  0010                     	;# 
   795  0011                     	;# 
   796  0012                     	;# 
   797  0013                     	;# 
   798  0014                     	;# 
   799  0015                     	;# 
   800  0015                     	;# 
   801  0016                     	;# 
   802  0016                     	;# 
   803  0017                     	;# 
   804  0018                     	;# 
   805  0019                     	;# 
   806  0019                     	;# 
   807  001A                     	;# 
   808  001B                     	;# 
   809  001C                     	;# 
   810  001D                     	;# 
   811  001E                     	;# 
   812  001F                     	;# 
   813  008C                     	;# 
   814  008D                     	;# 
   815  008E                     	;# 
   816  0090                     	;# 
   817  0091                     	;# 
   818  0092                     	;# 
   819  0093                     	;# 
   820  0094                     	;# 
   821  0097                     	;# 
   822  009B                     	;# 
   823  009B                     	;# 
   824  009C                     	;# 
   825  009D                     	;# 
   826  009E                     	;# 
   827  009F                     	;# 
   828  010C                     	;# 
   829  010D                     	;# 
   830  010E                     	;# 
   831  0111                     	;# 
   832  0112                     	;# 
   833  0113                     	;# 
   834  0114                     	;# 
   835  0115                     	;# 
   836  0116                     	;# 
   837  0117                     	;# 
   838  0118                     	;# 
   839  0119                     	;# 
   840  018C                     	;# 
   841  018D                     	;# 
   842  018E                     	;# 
   843  0197                     	;# 
   844  0199                     	;# 
   845  0199                     	;# 
   846  0199                     	;# 
   847  019A                     	;# 
   848  019A                     	;# 
   849  019A                     	;# 
   850  019B                     	;# 
   851  019B                     	;# 
   852  019B                     	;# 
   853  019B                     	;# 
   854  019B                     	;# 
   855  019C                     	;# 
   856  019C                     	;# 
   857  019C                     	;# 
   858  019D                     	;# 
   859  019D                     	;# 
   860  019D                     	;# 
   861  019E                     	;# 
   862  019E                     	;# 
   863  019E                     	;# 
   864  019F                     	;# 
   865  019F                     	;# 
   866  019F                     	;# 
   867  019F                     	;# 
   868  019F                     	;# 
   869  020C                     	;# 
   870  020D                     	;# 
   871  020E                     	;# 
   872  0211                     	;# 
   873  0211                     	;# 
   874  0212                     	;# 
   875  0212                     	;# 
   876  0213                     	;# 
   877  0213                     	;# 
   878  0214                     	;# 
   879  0214                     	;# 
   880  0215                     	;# 
   881  0215                     	;# 
   882  0215                     	;# 
   883  0215                     	;# 
   884  0216                     	;# 
   885  0216                     	;# 
   886  0217                     	;# 
   887  0217                     	;# 
   888  0219                     	;# 
   889  021A                     	;# 
   890  021B                     	;# 
   891  021C                     	;# 
   892  021D                     	;# 
   893  021D                     	;# 
   894  021E                     	;# 
   895  021F                     	;# 
   896  028C                     	;# 
   897  028D                     	;# 
   898  028E                     	;# 
   899  0291                     	;# 
   900  0291                     	;# 
   901  0292                     	;# 
   902  0293                     	;# 
   903  0294                     	;# 
   904  0295                     	;# 
   905  0295                     	;# 
   906  0296                     	;# 
   907  0297                     	;# 
   908  0298                     	;# 
   909  029F                     	;# 
   910  030C                     	;# 
   911  030D                     	;# 
   912  030E                     	;# 
   913  0311                     	;# 
   914  0311                     	;# 
   915  0312                     	;# 
   916  0313                     	;# 
   917  0314                     	;# 
   918  0315                     	;# 
   919  0315                     	;# 
   920  0316                     	;# 
   921  0317                     	;# 
   922  0318                     	;# 
   923  038C                     	;# 
   924  038D                     	;# 
   925  038E                     	;# 
   926  0391                     	;# 
   927  0392                     	;# 
   928  0393                     	;# 
   929  0394                     	;# 
   930  0395                     	;# 
   931  0396                     	;# 
   932  0397                     	;# 
   933  0398                     	;# 
   934  0399                     	;# 
   935  039A                     	;# 
   936  039C                     	;# 
   937  039D                     	;# 
   938  039E                     	;# 
   939  039F                     	;# 
   940  0411                     	;# 
   941  0411                     	;# 
   942  0412                     	;# 
   943  0413                     	;# 
   944  0414                     	;# 
   945  0415                     	;# 
   946  0416                     	;# 
   947  0417                     	;# 
   948  0418                     	;# 
   949  0418                     	;# 
   950  0419                     	;# 
   951  041A                     	;# 
   952  041B                     	;# 
   953  041C                     	;# 
   954  041D                     	;# 
   955  041E                     	;# 
   956  041F                     	;# 
   957  0498                     	;# 
   958  0498                     	;# 
   959  0499                     	;# 
   960  049A                     	;# 
   961  049B                     	;# 
   962  049B                     	;# 
   963  049C                     	;# 
   964  049D                     	;# 
   965  049E                     	;# 
   966  049F                     	;# 
   967  0617                     	;# 
   968  0618                     	;# 
   969  0619                     	;# 
   970  0619                     	;# 
   971  061A                     	;# 
   972  061B                     	;# 
   973  061C                     	;# 
   974  061C                     	;# 
   975  061F                     	;# 
   976  0691                     	;# 
   977  0692                     	;# 
   978  0693                     	;# 
   979  0694                     	;# 
   980  0695                     	;# 
   981  0696                     	;# 
   982  0697                     	;# 
   983  0698                     	;# 
   984  0699                     	;# 
   985  0711                     	;# 
   986  0712                     	;# 
   987  0713                     	;# 
   988  0714                     	;# 
   989  0715                     	;# 
   990  0716                     	;# 
   991  0717                     	;# 
   992  0718                     	;# 
   993  0719                     	;# 
   994  0891                     	;# 
   995  0891                     	;# 
   996  0891                     	;# 
   997  0891                     	;# 
   998  0891                     	;# 
   999  0891                     	;# 
  1000  0892                     	;# 
  1001  0892                     	;# 
  1002  0892                     	;# 
  1003  0893                     	;# 
  1004  0893                     	;# 
  1005  0893                     	;# 
  1006  0893                     	;# 
  1007  0893                     	;# 
  1008  0893                     	;# 
  1009  0894                     	;# 
  1010  0894                     	;# 
  1011  0894                     	;# 
  1012  0895                     	;# 
  1013  0895                     	;# 
  1014  0895                     	;# 
  1015  0896                     	;# 
  1016  0896                     	;# 
  1017  0896                     	;# 
  1018  089B                     	;# 
  1019  0911                     	;# 
  1020  0912                     	;# 
  1021  0913                     	;# 
  1022  0914                     	;# 
  1023  0915                     	;# 
  1024  0916                     	;# 
  1025  0918                     	;# 
  1026  0919                     	;# 
  1027  091A                     	;# 
  1028  091B                     	;# 
  1029  091C                     	;# 
  1030  091D                     	;# 
  1031  091E                     	;# 
  1032  091F                     	;# 
  1033  0E0F                     	;# 
  1034  0E10                     	;# 
  1035  0E11                     	;# 
  1036  0E12                     	;# 
  1037  0E13                     	;# 
  1038  0E14                     	;# 
  1039  0E15                     	;# 
  1040  0E16                     	;# 
  1041  0E17                     	;# 
  1042  0E18                     	;# 
  1043  0E19                     	;# 
  1044  0E1A                     	;# 
  1045  0E1B                     	;# 
  1046  0E1C                     	;# 
  1047  0E1D                     	;# 
  1048  0E1E                     	;# 
  1049  0E1F                     	;# 
  1050  0E20                     	;# 
  1051  0E21                     	;# 
  1052  0E22                     	;# 
  1053  0E24                     	;# 
  1054  0E25                     	;# 
  1055  0E28                     	;# 
  1056  0E29                     	;# 
  1057  0E2A                     	;# 
  1058  0E2B                     	;# 
  1059  0E2C                     	;# 
  1060  0E2D                     	;# 
  1061  0E2E                     	;# 
  1062  0E2F                     	;# 
  1063  0E90                     	;# 
  1064  0E91                     	;# 
  1065  0E92                     	;# 
  1066  0E94                     	;# 
  1067  0E95                     	;# 
  1068  0E9C                     	;# 
  1069  0E9D                     	;# 
  1070  0E9E                     	;# 
  1071  0E9F                     	;# 
  1072  0EA0                     	;# 
  1073  0EA1                     	;# 
  1074  0EA2                     	;# 
  1075  0EA3                     	;# 
  1076  0EA4                     	;# 
  1077  0EA5                     	;# 
  1078  0EA6                     	;# 
  1079  0EA7                     	;# 
  1080  0F0F                     	;# 
  1081  0F10                     	;# 
  1082  0F11                     	;# 
  1083  0F12                     	;# 
  1084  0F13                     	;# 
  1085  0F14                     	;# 
  1086  0F15                     	;# 
  1087  0F16                     	;# 
  1088  0F17                     	;# 
  1089  0F18                     	;# 
  1090  0F19                     	;# 
  1091  0F1A                     	;# 
  1092  0F1B                     	;# 
  1093  0F1C                     	;# 
  1094  0F1D                     	;# 
  1095  0F1E                     	;# 
  1096  0F1F                     	;# 
  1097  0F20                     	;# 
  1098  0F21                     	;# 
  1099  0F22                     	;# 
  1100  0F23                     	;# 
  1101  0F24                     	;# 
  1102  0F25                     	;# 
  1103  0F26                     	;# 
  1104  0F27                     	;# 
  1105  0F28                     	;# 
  1106  0F29                     	;# 
  1107  0F2A                     	;# 
  1108  0F2B                     	;# 
  1109  0F2C                     	;# 
  1110  0F2D                     	;# 
  1111  0F2E                     	;# 
  1112  0F2F                     	;# 
  1113  0F30                     	;# 
  1114  0F31                     	;# 
  1115  0F32                     	;# 
  1116  0F33                     	;# 
  1117  0F34                     	;# 
  1118  0F35                     	;# 
  1119  0F36                     	;# 
  1120  0F37                     	;# 
  1121  0FE4                     	;# 
  1122  0FE5                     	;# 
  1123  0FE6                     	;# 
  1124  0FE7                     	;# 
  1125  0FE8                     	;# 
  1126  0FE9                     	;# 
  1127  0FEA                     	;# 
  1128  0FEB                     	;# 
  1129  0FED                     	;# 
  1130  0FEE                     	;# 
  1131  0FEF                     	;# 
  1132  0000                     	;# 
  1133  0001                     	;# 
  1134  0002                     	;# 
  1135  0003                     	;# 
  1136  0004                     	;# 
  1137  0005                     	;# 
  1138  0006                     	;# 
  1139  0007                     	;# 
  1140  0008                     	;# 
  1141  0009                     	;# 
  1142  000A                     	;# 
  1143  000B                     	;# 
  1144  000C                     	;# 
  1145  000D                     	;# 
  1146  000E                     	;# 
  1147  0010                     	;# 
  1148  0011                     	;# 
  1149  0012                     	;# 
  1150  0013                     	;# 
  1151  0014                     	;# 
  1152  0015                     	;# 
  1153  0015                     	;# 
  1154  0016                     	;# 
  1155  0016                     	;# 
  1156  0017                     	;# 
  1157  0018                     	;# 
  1158  0019                     	;# 
  1159  0019                     	;# 
  1160  001A                     	;# 
  1161  001B                     	;# 
  1162  001C                     	;# 
  1163  001D                     	;# 
  1164  001E                     	;# 
  1165  001F                     	;# 
  1166  008C                     	;# 
  1167  008D                     	;# 
  1168  008E                     	;# 
  1169  0090                     	;# 
  1170  0091                     	;# 
  1171  0092                     	;# 
  1172  0093                     	;# 
  1173  0094                     	;# 
  1174  0097                     	;# 
  1175  009B                     	;# 
  1176  009B                     	;# 
  1177  009C                     	;# 
  1178  009D                     	;# 
  1179  009E                     	;# 
  1180  009F                     	;# 
  1181  010C                     	;# 
  1182  010D                     	;# 
  1183  010E                     	;# 
  1184  0111                     	;# 
  1185  0112                     	;# 
  1186  0113                     	;# 
  1187  0114                     	;# 
  1188  0115                     	;# 
  1189  0116                     	;# 
  1190  0117                     	;# 
  1191  0118                     	;# 
  1192  0119                     	;# 
  1193  018C                     	;# 
  1194  018D                     	;# 
  1195  018E                     	;# 
  1196  0197                     	;# 
  1197  0199                     	;# 
  1198  0199                     	;# 
  1199  0199                     	;# 
  1200  019A                     	;# 
  1201  019A                     	;# 
  1202  019A                     	;# 
  1203  019B                     	;# 
  1204  019B                     	;# 
  1205  019B                     	;# 
  1206  019B                     	;# 
  1207  019B                     	;# 
  1208  019C                     	;# 
  1209  019C                     	;# 
  1210  019C                     	;# 
  1211  019D                     	;# 
  1212  019D                     	;# 
  1213  019D                     	;# 
  1214  019E                     	;# 
  1215  019E                     	;# 
  1216  019E                     	;# 
  1217  019F                     	;# 
  1218  019F                     	;# 
  1219  019F                     	;# 
  1220  019F                     	;# 
  1221  019F                     	;# 
  1222  020C                     	;# 
  1223  020D                     	;# 
  1224  020E                     	;# 
  1225  0211                     	;# 
  1226  0211                     	;# 
  1227  0212                     	;# 
  1228  0212                     	;# 
  1229  0213                     	;# 
  1230  0213                     	;# 
  1231  0214                     	;# 
  1232  0214                     	;# 
  1233  0215                     	;# 
  1234  0215                     	;# 
  1235  0215                     	;# 
  1236  0215                     	;# 
  1237  0216                     	;# 
  1238  0216                     	;# 
  1239  0217                     	;# 
  1240  0217                     	;# 
  1241  0219                     	;# 
  1242  021A                     	;# 
  1243  021B                     	;# 
  1244  021C                     	;# 
  1245  021D                     	;# 
  1246  021D                     	;# 
  1247  021E                     	;# 
  1248  021F                     	;# 
  1249  028C                     	;# 
  1250  028D                     	;# 
  1251  028E                     	;# 
  1252  0291                     	;# 
  1253  0291                     	;# 
  1254  0292                     	;# 
  1255  0293                     	;# 
  1256  0294                     	;# 
  1257  0295                     	;# 
  1258  0295                     	;# 
  1259  0296                     	;# 
  1260  0297                     	;# 
  1261  0298                     	;# 
  1262  029F                     	;# 
  1263  030C                     	;# 
  1264  030D                     	;# 
  1265  030E                     	;# 
  1266  0311                     	;# 
  1267  0311                     	;# 
  1268  0312                     	;# 
  1269  0313                     	;# 
  1270  0314                     	;# 
  1271  0315                     	;# 
  1272  0315                     	;# 
  1273  0316                     	;# 
  1274  0317                     	;# 
  1275  0318                     	;# 
  1276  038C                     	;# 
  1277  038D                     	;# 
  1278  038E                     	;# 
  1279  0391                     	;# 
  1280  0392                     	;# 
  1281  0393                     	;# 
  1282  0394                     	;# 
  1283  0395                     	;# 
  1284  0396                     	;# 
  1285  0397                     	;# 
  1286  0398                     	;# 
  1287  0399                     	;# 
  1288  039A                     	;# 
  1289  039C                     	;# 
  1290  039D                     	;# 
  1291  039E                     	;# 
  1292  039F                     	;# 
  1293  0411                     	;# 
  1294  0411                     	;# 
  1295  0412                     	;# 
  1296  0413                     	;# 
  1297  0414                     	;# 
  1298  0415                     	;# 
  1299  0416                     	;# 
  1300  0417                     	;# 
  1301  0418                     	;# 
  1302  0418                     	;# 
  1303  0419                     	;# 
  1304  041A                     	;# 
  1305  041B                     	;# 
  1306  041C                     	;# 
  1307  041D                     	;# 
  1308  041E                     	;# 
  1309  041F                     	;# 
  1310  0498                     	;# 
  1311  0498                     	;# 
  1312  0499                     	;# 
  1313  049A                     	;# 
  1314  049B                     	;# 
  1315  049B                     	;# 
  1316  049C                     	;# 
  1317  049D                     	;# 
  1318  049E                     	;# 
  1319  049F                     	;# 
  1320  0617                     	;# 
  1321  0618                     	;# 
  1322  0619                     	;# 
  1323  0619                     	;# 
  1324  061A                     	;# 
  1325  061B                     	;# 
  1326  061C                     	;# 
  1327  061C                     	;# 
  1328  061F                     	;# 
  1329  0691                     	;# 
  1330  0692                     	;# 
  1331  0693                     	;# 
  1332  0694                     	;# 
  1333  0695                     	;# 
  1334  0696                     	;# 
  1335  0697                     	;# 
  1336  0698                     	;# 
  1337  0699                     	;# 
  1338  0711                     	;# 
  1339  0712                     	;# 
  1340  0713                     	;# 
  1341  0714                     	;# 
  1342  0715                     	;# 
  1343  0716                     	;# 
  1344  0717                     	;# 
  1345  0718                     	;# 
  1346  0719                     	;# 
  1347  0891                     	;# 
  1348  0891                     	;# 
  1349  0891                     	;# 
  1350  0891                     	;# 
  1351  0891                     	;# 
  1352  0891                     	;# 
  1353  0892                     	;# 
  1354  0892                     	;# 
  1355  0892                     	;# 
  1356  0893                     	;# 
  1357  0893                     	;# 
  1358  0893                     	;# 
  1359  0893                     	;# 
  1360  0893                     	;# 
  1361  0893                     	;# 
  1362  0894                     	;# 
  1363  0894                     	;# 
  1364  0894                     	;# 
  1365  0895                     	;# 
  1366  0895                     	;# 
  1367  0895                     	;# 
  1368  0896                     	;# 
  1369  0896                     	;# 
  1370  0896                     	;# 
  1371  089B                     	;# 
  1372  0911                     	;# 
  1373  0912                     	;# 
  1374  0913                     	;# 
  1375  0914                     	;# 
  1376  0915                     	;# 
  1377  0916                     	;# 
  1378  0918                     	;# 
  1379  0919                     	;# 
  1380  091A                     	;# 
  1381  091B                     	;# 
  1382  091C                     	;# 
  1383  091D                     	;# 
  1384  091E                     	;# 
  1385  091F                     	;# 
  1386  0E0F                     	;# 
  1387  0E10                     	;# 
  1388  0E11                     	;# 
  1389  0E12                     	;# 
  1390  0E13                     	;# 
  1391  0E14                     	;# 
  1392  0E15                     	;# 
  1393  0E16                     	;# 
  1394  0E17                     	;# 
  1395  0E18                     	;# 
  1396  0E19                     	;# 
  1397  0E1A                     	;# 
  1398  0E1B                     	;# 
  1399  0E1C                     	;# 
  1400  0E1D                     	;# 
  1401  0E1E                     	;# 
  1402  0E1F                     	;# 
  1403  0E20                     	;# 
  1404  0E21                     	;# 
  1405  0E22                     	;# 
  1406  0E24                     	;# 
  1407  0E25                     	;# 
  1408  0E28                     	;# 
  1409  0E29                     	;# 
  1410  0E2A                     	;# 
  1411  0E2B                     	;# 
  1412  0E2C                     	;# 
  1413  0E2D                     	;# 
  1414  0E2E                     	;# 
  1415  0E2F                     	;# 
  1416  0E90                     	;# 
  1417  0E91                     	;# 
  1418  0E92                     	;# 
  1419  0E94                     	;# 
  1420  0E95                     	;# 
  1421  0E9C                     	;# 
  1422  0E9D                     	;# 
  1423  0E9E                     	;# 
  1424  0E9F                     	;# 
  1425  0EA0                     	;# 
  1426  0EA1                     	;# 
  1427  0EA2                     	;# 
  1428  0EA3                     	;# 
  1429  0EA4                     	;# 
  1430  0EA5                     	;# 
  1431  0EA6                     	;# 
  1432  0EA7                     	;# 
  1433  0F0F                     	;# 
  1434  0F10                     	;# 
  1435  0F11                     	;# 
  1436  0F12                     	;# 
  1437  0F13                     	;# 
  1438  0F14                     	;# 
  1439  0F15                     	;# 
  1440  0F16                     	;# 
  1441  0F17                     	;# 
  1442  0F18                     	;# 
  1443  0F19                     	;# 
  1444  0F1A                     	;# 
  1445  0F1B                     	;# 
  1446  0F1C                     	;# 
  1447  0F1D                     	;# 
  1448  0F1E                     	;# 
  1449  0F1F                     	;# 
  1450  0F20                     	;# 
  1451  0F21                     	;# 
  1452  0F22                     	;# 
  1453  0F23                     	;# 
  1454  0F24                     	;# 
  1455  0F25                     	;# 
  1456  0F26                     	;# 
  1457  0F27                     	;# 
  1458  0F28                     	;# 
  1459  0F29                     	;# 
  1460  0F2A                     	;# 
  1461  0F2B                     	;# 
  1462  0F2C                     	;# 
  1463  0F2D                     	;# 
  1464  0F2E                     	;# 
  1465  0F2F                     	;# 
  1466  0F30                     	;# 
  1467  0F31                     	;# 
  1468  0F32                     	;# 
  1469  0F33                     	;# 
  1470  0F34                     	;# 
  1471  0F35                     	;# 
  1472  0F36                     	;# 
  1473  0F37                     	;# 
  1474  0FE4                     	;# 
  1475  0FE5                     	;# 
  1476  0FE6                     	;# 
  1477  0FE7                     	;# 
  1478  0FE8                     	;# 
  1479  0FE9                     	;# 
  1480  0FEA                     	;# 
  1481  0FEB                     	;# 
  1482  0FED                     	;# 
  1483  0FEE                     	;# 
  1484  0FEF                     	;# 
  1485  0000                     	;# 
  1486  0001                     	;# 
  1487  0002                     	;# 
  1488  0003                     	;# 
  1489  0004                     	;# 
  1490  0005                     	;# 
  1491  0006                     	;# 
  1492  0007                     	;# 
  1493  0008                     	;# 
  1494  0009                     	;# 
  1495  000A                     	;# 
  1496  000B                     	;# 
  1497  000C                     	;# 
  1498  000D                     	;# 
  1499  000E                     	;# 
  1500  0010                     	;# 
  1501  0011                     	;# 
  1502  0012                     	;# 
  1503  0013                     	;# 
  1504  0014                     	;# 
  1505  0015                     	;# 
  1506  0015                     	;# 
  1507  0016                     	;# 
  1508  0016                     	;# 
  1509  0017                     	;# 
  1510  0018                     	;# 
  1511  0019                     	;# 
  1512  0019                     	;# 
  1513  001A                     	;# 
  1514  001B                     	;# 
  1515  001C                     	;# 
  1516  001D                     	;# 
  1517  001E                     	;# 
  1518  001F                     	;# 
  1519  008C                     	;# 
  1520  008D                     	;# 
  1521  008E                     	;# 
  1522  0090                     	;# 
  1523  0091                     	;# 
  1524  0092                     	;# 
  1525  0093                     	;# 
  1526  0094                     	;# 
  1527  0097                     	;# 
  1528  009B                     	;# 
  1529  009B                     	;# 
  1530  009C                     	;# 
  1531  009D                     	;# 
  1532  009E                     	;# 
  1533  009F                     	;# 
  1534  010C                     	;# 
  1535  010D                     	;# 
  1536  010E                     	;# 
  1537  0111                     	;# 
  1538  0112                     	;# 
  1539  0113                     	;# 
  1540  0114                     	;# 
  1541  0115                     	;# 
  1542  0116                     	;# 
  1543  0117                     	;# 
  1544  0118                     	;# 
  1545  0119                     	;# 
  1546  018C                     	;# 
  1547  018D                     	;# 
  1548  018E                     	;# 
  1549  0197                     	;# 
  1550  0199                     	;# 
  1551  0199                     	;# 
  1552  0199                     	;# 
  1553  019A                     	;# 
  1554  019A                     	;# 
  1555  019A                     	;# 
  1556  019B                     	;# 
  1557  019B                     	;# 
  1558  019B                     	;# 
  1559  019B                     	;# 
  1560  019B                     	;# 
  1561  019C                     	;# 
  1562  019C                     	;# 
  1563  019C                     	;# 
  1564  019D                     	;# 
  1565  019D                     	;# 
  1566  019D                     	;# 
  1567  019E                     	;# 
  1568  019E                     	;# 
  1569  019E                     	;# 
  1570  019F                     	;# 
  1571  019F                     	;# 
  1572  019F                     	;# 
  1573  019F                     	;# 
  1574  019F                     	;# 
  1575  020C                     	;# 
  1576  020D                     	;# 
  1577  020E                     	;# 
  1578  0211                     	;# 
  1579  0211                     	;# 
  1580  0212                     	;# 
  1581  0212                     	;# 
  1582  0213                     	;# 
  1583  0213                     	;# 
  1584  0214                     	;# 
  1585  0214                     	;# 
  1586  0215                     	;# 
  1587  0215                     	;# 
  1588  0215                     	;# 
  1589  0215                     	;# 
  1590  0216                     	;# 
  1591  0216                     	;# 
  1592  0217                     	;# 
  1593  0217                     	;# 
  1594  0219                     	;# 
  1595  021A                     	;# 
  1596  021B                     	;# 
  1597  021C                     	;# 
  1598  021D                     	;# 
  1599  021D                     	;# 
  1600  021E                     	;# 
  1601  021F                     	;# 
  1602  028C                     	;# 
  1603  028D                     	;# 
  1604  028E                     	;# 
  1605  0291                     	;# 
  1606  0291                     	;# 
  1607  0292                     	;# 
  1608  0293                     	;# 
  1609  0294                     	;# 
  1610  0295                     	;# 
  1611  0295                     	;# 
  1612  0296                     	;# 
  1613  0297                     	;# 
  1614  0298                     	;# 
  1615  029F                     	;# 
  1616  030C                     	;# 
  1617  030D                     	;# 
  1618  030E                     	;# 
  1619  0311                     	;# 
  1620  0311                     	;# 
  1621  0312                     	;# 
  1622  0313                     	;# 
  1623  0314                     	;# 
  1624  0315                     	;# 
  1625  0315                     	;# 
  1626  0316                     	;# 
  1627  0317                     	;# 
  1628  0318                     	;# 
  1629  038C                     	;# 
  1630  038D                     	;# 
  1631  038E                     	;# 
  1632  0391                     	;# 
  1633  0392                     	;# 
  1634  0393                     	;# 
  1635  0394                     	;# 
  1636  0395                     	;# 
  1637  0396                     	;# 
  1638  0397                     	;# 
  1639  0398                     	;# 
  1640  0399                     	;# 
  1641  039A                     	;# 
  1642  039C                     	;# 
  1643  039D                     	;# 
  1644  039E                     	;# 
  1645  039F                     	;# 
  1646  0411                     	;# 
  1647  0411                     	;# 
  1648  0412                     	;# 
  1649  0413                     	;# 
  1650  0414                     	;# 
  1651  0415                     	;# 
  1652  0416                     	;# 
  1653  0417                     	;# 
  1654  0418                     	;# 
  1655  0418                     	;# 
  1656  0419                     	;# 
  1657  041A                     	;# 
  1658  041B                     	;# 
  1659  041C                     	;# 
  1660  041D                     	;# 
  1661  041E                     	;# 
  1662  041F                     	;# 
  1663  0498                     	;# 
  1664  0498                     	;# 
  1665  0499                     	;# 
  1666  049A                     	;# 
  1667  049B                     	;# 
  1668  049B                     	;# 
  1669  049C                     	;# 
  1670  049D                     	;# 
  1671  049E                     	;# 
  1672  049F                     	;# 
  1673  0617                     	;# 
  1674  0618                     	;# 
  1675  0619                     	;# 
  1676  0619                     	;# 
  1677  061A                     	;# 
  1678  061B                     	;# 
  1679  061C                     	;# 
  1680  061C                     	;# 
  1681  061F                     	;# 
  1682  0691                     	;# 
  1683  0692                     	;# 
  1684  0693                     	;# 
  1685  0694                     	;# 
  1686  0695                     	;# 
  1687  0696                     	;# 
  1688  0697                     	;# 
  1689  0698                     	;# 
  1690  0699                     	;# 
  1691  0711                     	;# 
  1692  0712                     	;# 
  1693  0713                     	;# 
  1694  0714                     	;# 
  1695  0715                     	;# 
  1696  0716                     	;# 
  1697  0717                     	;# 
  1698  0718                     	;# 
  1699  0719                     	;# 
  1700  0891                     	;# 
  1701  0891                     	;# 
  1702  0891                     	;# 
  1703  0891                     	;# 
  1704  0891                     	;# 
  1705  0891                     	;# 
  1706  0892                     	;# 
  1707  0892                     	;# 
  1708  0892                     	;# 
  1709  0893                     	;# 
  1710  0893                     	;# 
  1711  0893                     	;# 
  1712  0893                     	;# 
  1713  0893                     	;# 
  1714  0893                     	;# 
  1715  0894                     	;# 
  1716  0894                     	;# 
  1717  0894                     	;# 
  1718  0895                     	;# 
  1719  0895                     	;# 
  1720  0895                     	;# 
  1721  0896                     	;# 
  1722  0896                     	;# 
  1723  0896                     	;# 
  1724  089B                     	;# 
  1725  0911                     	;# 
  1726  0912                     	;# 
  1727  0913                     	;# 
  1728  0914                     	;# 
  1729  0915                     	;# 
  1730  0916                     	;# 
  1731  0918                     	;# 
  1732  0919                     	;# 
  1733  091A                     	;# 
  1734  091B                     	;# 
  1735  091C                     	;# 
  1736  091D                     	;# 
  1737  091E                     	;# 
  1738  091F                     	;# 
  1739  0E0F                     	;# 
  1740  0E10                     	;# 
  1741  0E11                     	;# 
  1742  0E12                     	;# 
  1743  0E13                     	;# 
  1744  0E14                     	;# 
  1745  0E15                     	;# 
  1746  0E16                     	;# 
  1747  0E17                     	;# 
  1748  0E18                     	;# 
  1749  0E19                     	;# 
  1750  0E1A                     	;# 
  1751  0E1B                     	;# 
  1752  0E1C                     	;# 
  1753  0E1D                     	;# 
  1754  0E1E                     	;# 
  1755  0E1F                     	;# 
  1756  0E20                     	;# 
  1757  0E21                     	;# 
  1758  0E22                     	;# 
  1759  0E24                     	;# 
  1760  0E25                     	;# 
  1761  0E28                     	;# 
  1762  0E29                     	;# 
  1763  0E2A                     	;# 
  1764  0E2B                     	;# 
  1765  0E2C                     	;# 
  1766  0E2D                     	;# 
  1767  0E2E                     	;# 
  1768  0E2F                     	;# 
  1769  0E90                     	;# 
  1770  0E91                     	;# 
  1771  0E92                     	;# 
  1772  0E94                     	;# 
  1773  0E95                     	;# 
  1774  0E9C                     	;# 
  1775  0E9D                     	;# 
  1776  0E9E                     	;# 
  1777  0E9F                     	;# 
  1778  0EA0                     	;# 
  1779  0EA1                     	;# 
  1780  0EA2                     	;# 
  1781  0EA3                     	;# 
  1782  0EA4                     	;# 
  1783  0EA5                     	;# 
  1784  0EA6                     	;# 
  1785  0EA7                     	;# 
  1786  0F0F                     	;# 
  1787  0F10                     	;# 
  1788  0F11                     	;# 
  1789  0F12                     	;# 
  1790  0F13                     	;# 
  1791  0F14                     	;# 
  1792  0F15                     	;# 
  1793  0F16                     	;# 
  1794  0F17                     	;# 
  1795  0F18                     	;# 
  1796  0F19                     	;# 
  1797  0F1A                     	;# 
  1798  0F1B                     	;# 
  1799  0F1C                     	;# 
  1800  0F1D                     	;# 
  1801  0F1E                     	;# 
  1802  0F1F                     	;# 
  1803  0F20                     	;# 
  1804  0F21                     	;# 
  1805  0F22                     	;# 
  1806  0F23                     	;# 
  1807  0F24                     	;# 
  1808  0F25                     	;# 
  1809  0F26                     	;# 
  1810  0F27                     	;# 
  1811  0F28                     	;# 
  1812  0F29                     	;# 
  1813  0F2A                     	;# 
  1814  0F2B                     	;# 
  1815  0F2C                     	;# 
  1816  0F2D                     	;# 
  1817  0F2E                     	;# 
  1818  0F2F                     	;# 
  1819  0F30                     	;# 
  1820  0F31                     	;# 
  1821  0F32                     	;# 
  1822  0F33                     	;# 
  1823  0F34                     	;# 
  1824  0F35                     	;# 
  1825  0F36                     	;# 
  1826  0F37                     	;# 
  1827  0FE4                     	;# 
  1828  0FE5                     	;# 
  1829  0FE6                     	;# 
  1830  0FE7                     	;# 
  1831  0FE8                     	;# 
  1832  0FE9                     	;# 
  1833  0FEA                     	;# 
  1834  0FEB                     	;# 
  1835  0FED                     	;# 
  1836  0FEE                     	;# 
  1837  0FEF                     	;# 
  1838  0000                     	;# 
  1839  0001                     	;# 
  1840  0002                     	;# 
  1841  0003                     	;# 
  1842  0004                     	;# 
  1843  0005                     	;# 
  1844  0006                     	;# 
  1845  0007                     	;# 
  1846  0008                     	;# 
  1847  0009                     	;# 
  1848  000A                     	;# 
  1849  000B                     	;# 
  1850  000C                     	;# 
  1851  000D                     	;# 
  1852  000E                     	;# 
  1853  0010                     	;# 
  1854  0011                     	;# 
  1855  0012                     	;# 
  1856  0013                     	;# 
  1857  0014                     	;# 
  1858  0015                     	;# 
  1859  0015                     	;# 
  1860  0016                     	;# 
  1861  0016                     	;# 
  1862  0017                     	;# 
  1863  0018                     	;# 
  1864  0019                     	;# 
  1865  0019                     	;# 
  1866  001A                     	;# 
  1867  001B                     	;# 
  1868  001C                     	;# 
  1869  001D                     	;# 
  1870  001E                     	;# 
  1871  001F                     	;# 
  1872  008C                     	;# 
  1873  008D                     	;# 
  1874  008E                     	;# 
  1875  0090                     	;# 
  1876  0091                     	;# 
  1877  0092                     	;# 
  1878  0093                     	;# 
  1879  0094                     	;# 
  1880  0097                     	;# 
  1881  009B                     	;# 
  1882  009B                     	;# 
  1883  009C                     	;# 
  1884  009D                     	;# 
  1885  009E                     	;# 
  1886  009F                     	;# 
  1887  010C                     	;# 
  1888  010D                     	;# 
  1889  010E                     	;# 
  1890  0111                     	;# 
  1891  0112                     	;# 
  1892  0113                     	;# 
  1893  0114                     	;# 
  1894  0115                     	;# 
  1895  0116                     	;# 
  1896  0117                     	;# 
  1897  0118                     	;# 
  1898  0119                     	;# 
  1899  018C                     	;# 
  1900  018D                     	;# 
  1901  018E                     	;# 
  1902  0197                     	;# 
  1903  0199                     	;# 
  1904  0199                     	;# 
  1905  0199                     	;# 
  1906  019A                     	;# 
  1907  019A                     	;# 
  1908  019A                     	;# 
  1909  019B                     	;# 
  1910  019B                     	;# 
  1911  019B                     	;# 
  1912  019B                     	;# 
  1913  019B                     	;# 
  1914  019C                     	;# 
  1915  019C                     	;# 
  1916  019C                     	;# 
  1917  019D                     	;# 
  1918  019D                     	;# 
  1919  019D                     	;# 
  1920  019E                     	;# 
  1921  019E                     	;# 
  1922  019E                     	;# 
  1923  019F                     	;# 
  1924  019F                     	;# 
  1925  019F                     	;# 
  1926  019F                     	;# 
  1927  019F                     	;# 
  1928  020C                     	;# 
  1929  020D                     	;# 
  1930  020E                     	;# 
  1931  0211                     	;# 
  1932  0211                     	;# 
  1933  0212                     	;# 
  1934  0212                     	;# 
  1935  0213                     	;# 
  1936  0213                     	;# 
  1937  0214                     	;# 
  1938  0214                     	;# 
  1939  0215                     	;# 
  1940  0215                     	;# 
  1941  0215                     	;# 
  1942  0215                     	;# 
  1943  0216                     	;# 
  1944  0216                     	;# 
  1945  0217                     	;# 
  1946  0217                     	;# 
  1947  0219                     	;# 
  1948  021A                     	;# 
  1949  021B                     	;# 
  1950  021C                     	;# 
  1951  021D                     	;# 
  1952  021D                     	;# 
  1953  021E                     	;# 
  1954  021F                     	;# 
  1955  028C                     	;# 
  1956  028D                     	;# 
  1957  028E                     	;# 
  1958  0291                     	;# 
  1959  0291                     	;# 
  1960  0292                     	;# 
  1961  0293                     	;# 
  1962  0294                     	;# 
  1963  0295                     	;# 
  1964  0295                     	;# 
  1965  0296                     	;# 
  1966  0297                     	;# 
  1967  0298                     	;# 
  1968  029F                     	;# 
  1969  030C                     	;# 
  1970  030D                     	;# 
  1971  030E                     	;# 
  1972  0311                     	;# 
  1973  0311                     	;# 
  1974  0312                     	;# 
  1975  0313                     	;# 
  1976  0314                     	;# 
  1977  0315                     	;# 
  1978  0315                     	;# 
  1979  0316                     	;# 
  1980  0317                     	;# 
  1981  0318                     	;# 
  1982  038C                     	;# 
  1983  038D                     	;# 
  1984  038E                     	;# 
  1985  0391                     	;# 
  1986  0392                     	;# 
  1987  0393                     	;# 
  1988  0394                     	;# 
  1989  0395                     	;# 
  1990  0396                     	;# 
  1991  0397                     	;# 
  1992  0398                     	;# 
  1993  0399                     	;# 
  1994  039A                     	;# 
  1995  039C                     	;# 
  1996  039D                     	;# 
  1997  039E                     	;# 
  1998  039F                     	;# 
  1999  0411                     	;# 
  2000  0411                     	;# 
  2001  0412                     	;# 
  2002  0413                     	;# 
  2003  0414                     	;# 
  2004  0415                     	;# 
  2005  0416                     	;# 
  2006  0417                     	;# 
  2007  0418                     	;# 
  2008  0418                     	;# 
  2009  0419                     	;# 
  2010  041A                     	;# 
  2011  041B                     	;# 
  2012  041C                     	;# 
  2013  041D                     	;# 
  2014  041E                     	;# 
  2015  041F                     	;# 
  2016  0498                     	;# 
  2017  0498                     	;# 
  2018  0499                     	;# 
  2019  049A                     	;# 
  2020  049B                     	;# 
  2021  049B                     	;# 
  2022  049C                     	;# 
  2023  049D                     	;# 
  2024  049E                     	;# 
  2025  049F                     	;# 
  2026  0617                     	;# 
  2027  0618                     	;# 
  2028  0619                     	;# 
  2029  0619                     	;# 
  2030  061A                     	;# 
  2031  061B                     	;# 
  2032  061C                     	;# 
  2033  061C                     	;# 
  2034  061F                     	;# 
  2035  0691                     	;# 
  2036  0692                     	;# 
  2037  0693                     	;# 
  2038  0694                     	;# 
  2039  0695                     	;# 
  2040  0696                     	;# 
  2041  0697                     	;# 
  2042  0698                     	;# 
  2043  0699                     	;# 
  2044  0711                     	;# 
  2045  0712                     	;# 
  2046  0713                     	;# 
  2047  0714                     	;# 
  2048  0715                     	;# 
  2049  0716                     	;# 
  2050  0717                     	;# 
  2051  0718                     	;# 
  2052  0719                     	;# 
  2053  0891                     	;# 
  2054  0891                     	;# 
  2055  0891                     	;# 
  2056  0891                     	;# 
  2057  0891                     	;# 
  2058  0891                     	;# 
  2059  0892                     	;# 
  2060  0892                     	;# 
  2061  0892                     	;# 
  2062  0893                     	;# 
  2063  0893                     	;# 
  2064  0893                     	;# 
  2065  0893                     	;# 
  2066  0893                     	;# 
  2067  0893                     	;# 
  2068  0894                     	;# 
  2069  0894                     	;# 
  2070  0894                     	;# 
  2071  0895                     	;# 
  2072  0895                     	;# 
  2073  0895                     	;# 
  2074  0896                     	;# 
  2075  0896                     	;# 
  2076  0896                     	;# 
  2077  089B                     	;# 
  2078  0911                     	;# 
  2079  0912                     	;# 
  2080  0913                     	;# 
  2081  0914                     	;# 
  2082  0915                     	;# 
  2083  0916                     	;# 
  2084  0918                     	;# 
  2085  0919                     	;# 
  2086  091A                     	;# 
  2087  091B                     	;# 
  2088  091C                     	;# 
  2089  091D                     	;# 
  2090  091E                     	;# 
  2091  091F                     	;# 
  2092  0E0F                     	;# 
  2093  0E10                     	;# 
  2094  0E11                     	;# 
  2095  0E12                     	;# 
  2096  0E13                     	;# 
  2097  0E14                     	;# 
  2098  0E15                     	;# 
  2099  0E16                     	;# 
  2100  0E17                     	;# 
  2101  0E18                     	;# 
  2102  0E19                     	;# 
  2103  0E1A                     	;# 
  2104  0E1B                     	;# 
  2105  0E1C                     	;# 
  2106  0E1D                     	;# 
  2107  0E1E                     	;# 
  2108  0E1F                     	;# 
  2109  0E20                     	;# 
  2110  0E21                     	;# 
  2111  0E22                     	;# 
  2112  0E24                     	;# 
  2113  0E25                     	;# 
  2114  0E28                     	;# 
  2115  0E29                     	;# 
  2116  0E2A                     	;# 
  2117  0E2B                     	;# 
  2118  0E2C                     	;# 
  2119  0E2D                     	;# 
  2120  0E2E                     	;# 
  2121  0E2F                     	;# 
  2122  0E90                     	;# 
  2123  0E91                     	;# 
  2124  0E92                     	;# 
  2125  0E94                     	;# 
  2126  0E95                     	;# 
  2127  0E9C                     	;# 
  2128  0E9D                     	;# 
  2129  0E9E                     	;# 
  2130  0E9F                     	;# 
  2131  0EA0                     	;# 
  2132  0EA1                     	;# 
  2133  0EA2                     	;# 
  2134  0EA3                     	;# 
  2135  0EA4                     	;# 
  2136  0EA5                     	;# 
  2137  0EA6                     	;# 
  2138  0EA7                     	;# 
  2139  0F0F                     	;# 
  2140  0F10                     	;# 
  2141  0F11                     	;# 
  2142  0F12                     	;# 
  2143  0F13                     	;# 
  2144  0F14                     	;# 
  2145  0F15                     	;# 
  2146  0F16                     	;# 
  2147  0F17                     	;# 
  2148  0F18                     	;# 
  2149  0F19                     	;# 
  2150  0F1A                     	;# 
  2151  0F1B                     	;# 
  2152  0F1C                     	;# 
  2153  0F1D                     	;# 
  2154  0F1E                     	;# 
  2155  0F1F                     	;# 
  2156  0F20                     	;# 
  2157  0F21                     	;# 
  2158  0F22                     	;# 
  2159  0F23                     	;# 
  2160  0F24                     	;# 
  2161  0F25                     	;# 
  2162  0F26                     	;# 
  2163  0F27                     	;# 
  2164  0F28                     	;# 
  2165  0F29                     	;# 
  2166  0F2A                     	;# 
  2167  0F2B                     	;# 
  2168  0F2C                     	;# 
  2169  0F2D                     	;# 
  2170  0F2E                     	;# 
  2171  0F2F                     	;# 
  2172  0F30                     	;# 
  2173  0F31                     	;# 
  2174  0F32                     	;# 
  2175  0F33                     	;# 
  2176  0F34                     	;# 
  2177  0F35                     	;# 
  2178  0F36                     	;# 
  2179  0F37                     	;# 
  2180  0FE4                     	;# 
  2181  0FE5                     	;# 
  2182  0FE6                     	;# 
  2183  0FE7                     	;# 
  2184  0FE8                     	;# 
  2185  0FE9                     	;# 
  2186  0FEA                     	;# 
  2187  0FEB                     	;# 
  2188  0FED                     	;# 
  2189  0FEE                     	;# 
  2190  0FEF                     	;# 
  2191  0000                     	;# 
  2192  0001                     	;# 
  2193  0002                     	;# 
  2194  0003                     	;# 
  2195  0004                     	;# 
  2196  0005                     	;# 
  2197  0006                     	;# 
  2198  0007                     	;# 
  2199  0008                     	;# 
  2200  0009                     	;# 
  2201  000A                     	;# 
  2202  000B                     	;# 
  2203  000C                     	;# 
  2204  000D                     	;# 
  2205  000E                     	;# 
  2206  0010                     	;# 
  2207  0011                     	;# 
  2208  0012                     	;# 
  2209  0013                     	;# 
  2210  0014                     	;# 
  2211  0015                     	;# 
  2212  0015                     	;# 
  2213  0016                     	;# 
  2214  0016                     	;# 
  2215  0017                     	;# 
  2216  0018                     	;# 
  2217  0019                     	;# 
  2218  0019                     	;# 
  2219  001A                     	;# 
  2220  001B                     	;# 
  2221  001C                     	;# 
  2222  001D                     	;# 
  2223  001E                     	;# 
  2224  001F                     	;# 
  2225  008C                     	;# 
  2226  008D                     	;# 
  2227  008E                     	;# 
  2228  0090                     	;# 
  2229  0091                     	;# 
  2230  0092                     	;# 
  2231  0093                     	;# 
  2232  0094                     	;# 
  2233  0097                     	;# 
  2234  009B                     	;# 
  2235  009B                     	;# 
  2236  009C                     	;# 
  2237  009D                     	;# 
  2238  009E                     	;# 
  2239  009F                     	;# 
  2240  010C                     	;# 
  2241  010D                     	;# 
  2242  010E                     	;# 
  2243  0111                     	;# 
  2244  0112                     	;# 
  2245  0113                     	;# 
  2246  0114                     	;# 
  2247  0115                     	;# 
  2248  0116                     	;# 
  2249  0117                     	;# 
  2250  0118                     	;# 
  2251  0119                     	;# 
  2252  018C                     	;# 
  2253  018D                     	;# 
  2254  018E                     	;# 
  2255  0197                     	;# 
  2256  0199                     	;# 
  2257  0199                     	;# 
  2258  0199                     	;# 
  2259  019A                     	;# 
  2260  019A                     	;# 
  2261  019A                     	;# 
  2262  019B                     	;# 
  2263  019B                     	;# 
  2264  019B                     	;# 
  2265  019B                     	;# 
  2266  019B                     	;# 
  2267  019C                     	;# 
  2268  019C                     	;# 
  2269  019C                     	;# 
  2270  019D                     	;# 
  2271  019D                     	;# 
  2272  019D                     	;# 
  2273  019E                     	;# 
  2274  019E                     	;# 
  2275  019E                     	;# 
  2276  019F                     	;# 
  2277  019F                     	;# 
  2278  019F                     	;# 
  2279  019F                     	;# 
  2280  019F                     	;# 
  2281  020C                     	;# 
  2282  020D                     	;# 
  2283  020E                     	;# 
  2284  0211                     	;# 
  2285  0211                     	;# 
  2286  0212                     	;# 
  2287  0212                     	;# 
  2288  0213                     	;# 
  2289  0213                     	;# 
  2290  0214                     	;# 
  2291  0214                     	;# 
  2292  0215                     	;# 
  2293  0215                     	;# 
  2294  0215                     	;# 
  2295  0215                     	;# 
  2296  0216                     	;# 
  2297  0216                     	;# 
  2298  0217                     	;# 
  2299  0217                     	;# 
  2300  0219                     	;# 
  2301  021A                     	;# 
  2302  021B                     	;# 
  2303  021C                     	;# 
  2304  021D                     	;# 
  2305  021D                     	;# 
  2306  021E                     	;# 
  2307  021F                     	;# 
  2308  028C                     	;# 
  2309  028D                     	;# 
  2310  028E                     	;# 
  2311  0291                     	;# 
  2312  0291                     	;# 
  2313  0292                     	;# 
  2314  0293                     	;# 
  2315  0294                     	;# 
  2316  0295                     	;# 
  2317  0295                     	;# 
  2318  0296                     	;# 
  2319  0297                     	;# 
  2320  0298                     	;# 
  2321  029F                     	;# 
  2322  030C                     	;# 
  2323  030D                     	;# 
  2324  030E                     	;# 
  2325  0311                     	;# 
  2326  0311                     	;# 
  2327  0312                     	;# 
  2328  0313                     	;# 
  2329  0314                     	;# 
  2330  0315                     	;# 
  2331  0315                     	;# 
  2332  0316                     	;# 
  2333  0317                     	;# 
  2334  0318                     	;# 
  2335  038C                     	;# 
  2336  038D                     	;# 
  2337  038E                     	;# 
  2338  0391                     	;# 
  2339  0392                     	;# 
  2340  0393                     	;# 
  2341  0394                     	;# 
  2342  0395                     	;# 
  2343  0396                     	;# 
  2344  0397                     	;# 
  2345  0398                     	;# 
  2346  0399                     	;# 
  2347  039A                     	;# 
  2348  039C                     	;# 
  2349  039D                     	;# 
  2350  039E                     	;# 
  2351  039F                     	;# 
  2352  0411                     	;# 
  2353  0411                     	;# 
  2354  0412                     	;# 
  2355  0413                     	;# 
  2356  0414                     	;# 
  2357  0415                     	;# 
  2358  0416                     	;# 
  2359  0417                     	;# 
  2360  0418                     	;# 
  2361  0418                     	;# 
  2362  0419                     	;# 
  2363  041A                     	;# 
  2364  041B                     	;# 
  2365  041C                     	;# 
  2366  041D                     	;# 
  2367  041E                     	;# 
  2368  041F                     	;# 
  2369  0498                     	;# 
  2370  0498                     	;# 
  2371  0499                     	;# 
  2372  049A                     	;# 
  2373  049B                     	;# 
  2374  049B                     	;# 
  2375  049C                     	;# 
  2376  049D                     	;# 
  2377  049E                     	;# 
  2378  049F                     	;# 
  2379  0617                     	;# 
  2380  0618                     	;# 
  2381  0619                     	;# 
  2382  0619                     	;# 
  2383  061A                     	;# 
  2384  061B                     	;# 
  2385  061C                     	;# 
  2386  061C                     	;# 
  2387  061F                     	;# 
  2388  0691                     	;# 
  2389  0692                     	;# 
  2390  0693                     	;# 
  2391  0694                     	;# 
  2392  0695                     	;# 
  2393  0696                     	;# 
  2394  0697                     	;# 
  2395  0698                     	;# 
  2396  0699                     	;# 
  2397  0711                     	;# 
  2398  0712                     	;# 
  2399  0713                     	;# 
  2400  0714                     	;# 
  2401  0715                     	;# 
  2402  0716                     	;# 
  2403  0717                     	;# 
  2404  0718                     	;# 
  2405  0719                     	;# 
  2406  0891                     	;# 
  2407  0891                     	;# 
  2408  0891                     	;# 
  2409  0891                     	;# 
  2410  0891                     	;# 
  2411  0891                     	;# 
  2412  0892                     	;# 
  2413  0892                     	;# 
  2414  0892                     	;# 
  2415  0893                     	;# 
  2416  0893                     	;# 
  2417  0893                     	;# 
  2418  0893                     	;# 
  2419  0893                     	;# 
  2420  0893                     	;# 
  2421  0894                     	;# 
  2422  0894                     	;# 
  2423  0894                     	;# 
  2424  0895                     	;# 
  2425  0895                     	;# 
  2426  0895                     	;# 
  2427  0896                     	;# 
  2428  0896                     	;# 
  2429  0896                     	;# 
  2430  089B                     	;# 
  2431  0911                     	;# 
  2432  0912                     	;# 
  2433  0913                     	;# 
  2434  0914                     	;# 
  2435  0915                     	;# 
  2436  0916                     	;# 
  2437  0918                     	;# 
  2438  0919                     	;# 
  2439  091A                     	;# 
  2440  091B                     	;# 
  2441  091C                     	;# 
  2442  091D                     	;# 
  2443  091E                     	;# 
  2444  091F                     	;# 
  2445  0E0F                     	;# 
  2446  0E10                     	;# 
  2447  0E11                     	;# 
  2448  0E12                     	;# 
  2449  0E13                     	;# 
  2450  0E14                     	;# 
  2451  0E15                     	;# 
  2452  0E16                     	;# 
  2453  0E17                     	;# 
  2454  0E18                     	;# 
  2455  0E19                     	;# 
  2456  0E1A                     	;# 
  2457  0E1B                     	;# 
  2458  0E1C                     	;# 
  2459  0E1D                     	;# 
  2460  0E1E                     	;# 
  2461  0E1F                     	;# 
  2462  0E20                     	;# 
  2463  0E21                     	;# 
  2464  0E22                     	;# 
  2465  0E24                     	;# 
  2466  0E25                     	;# 
  2467  0E28                     	;# 
  2468  0E29                     	;# 
  2469  0E2A                     	;# 
  2470  0E2B                     	;# 
  2471  0E2C                     	;# 
  2472  0E2D                     	;# 
  2473  0E2E                     	;# 
  2474  0E2F                     	;# 
  2475  0E90                     	;# 
  2476  0E91                     	;# 
  2477  0E92                     	;# 
  2478  0E94                     	;# 
  2479  0E95                     	;# 
  2480  0E9C                     	;# 
  2481  0E9D                     	;# 
  2482  0E9E                     	;# 
  2483  0E9F                     	;# 
  2484  0EA0                     	;# 
  2485  0EA1                     	;# 
  2486  0EA2                     	;# 
  2487  0EA3                     	;# 
  2488  0EA4                     	;# 
  2489  0EA5                     	;# 
  2490  0EA6                     	;# 
  2491  0EA7                     	;# 
  2492  0F0F                     	;# 
  2493  0F10                     	;# 
  2494  0F11                     	;# 
  2495  0F12                     	;# 
  2496  0F13                     	;# 
  2497  0F14                     	;# 
  2498  0F15                     	;# 
  2499  0F16                     	;# 
  2500  0F17                     	;# 
  2501  0F18                     	;# 
  2502  0F19                     	;# 
  2503  0F1A                     	;# 
  2504  0F1B                     	;# 
  2505  0F1C                     	;# 
  2506  0F1D                     	;# 
  2507  0F1E                     	;# 
  2508  0F1F                     	;# 
  2509  0F20                     	;# 
  2510  0F21                     	;# 
  2511  0F22                     	;# 
  2512  0F23                     	;# 
  2513  0F24                     	;# 
  2514  0F25                     	;# 
  2515  0F26                     	;# 
  2516  0F27                     	;# 
  2517  0F28                     	;# 
  2518  0F29                     	;# 
  2519  0F2A                     	;# 
  2520  0F2B                     	;# 
  2521  0F2C                     	;# 
  2522  0F2D                     	;# 
  2523  0F2E                     	;# 
  2524  0F2F                     	;# 
  2525  0F30                     	;# 
  2526  0F31                     	;# 
  2527  0F32                     	;# 
  2528  0F33                     	;# 
  2529  0F34                     	;# 
  2530  0F35                     	;# 
  2531  0F36                     	;# 
  2532  0F37                     	;# 
  2533  0FE4                     	;# 
  2534  0FE5                     	;# 
  2535  0FE6                     	;# 
  2536  0FE7                     	;# 
  2537  0FE8                     	;# 
  2538  0FE9                     	;# 
  2539  0FEA                     	;# 
  2540  0FEB                     	;# 
  2541  0FED                     	;# 
  2542  0FEE                     	;# 
  2543  0FEF                     	;# 
  2544  0000                     	;# 
  2545  0001                     	;# 
  2546  0002                     	;# 
  2547  0003                     	;# 
  2548  0004                     	;# 
  2549  0005                     	;# 
  2550  0006                     	;# 
  2551  0007                     	;# 
  2552  0008                     	;# 
  2553  0009                     	;# 
  2554  000A                     	;# 
  2555  000B                     	;# 
  2556  000C                     	;# 
  2557  000D                     	;# 
  2558  000E                     	;# 
  2559  0010                     	;# 
  2560  0011                     	;# 
  2561  0012                     	;# 
  2562  0013                     	;# 
  2563  0014                     	;# 
  2564  0015                     	;# 
  2565  0015                     	;# 
  2566  0016                     	;# 
  2567  0016                     	;# 
  2568  0017                     	;# 
  2569  0018                     	;# 
  2570  0019                     	;# 
  2571  0019                     	;# 
  2572  001A                     	;# 
  2573  001B                     	;# 
  2574  001C                     	;# 
  2575  001D                     	;# 
  2576  001E                     	;# 
  2577  001F                     	;# 
  2578  008C                     	;# 
  2579  008D                     	;# 
  2580  008E                     	;# 
  2581  0090                     	;# 
  2582  0091                     	;# 
  2583  0092                     	;# 
  2584  0093                     	;# 
  2585  0094                     	;# 
  2586  0097                     	;# 
  2587  009B                     	;# 
  2588  009B                     	;# 
  2589  009C                     	;# 
  2590  009D                     	;# 
  2591  009E                     	;# 
  2592  009F                     	;# 
  2593  010C                     	;# 
  2594  010D                     	;# 
  2595  010E                     	;# 
  2596  0111                     	;# 
  2597  0112                     	;# 
  2598  0113                     	;# 
  2599  0114                     	;# 
  2600  0115                     	;# 
  2601  0116                     	;# 
  2602  0117                     	;# 
  2603  0118                     	;# 
  2604  0119                     	;# 
  2605  018C                     	;# 
  2606  018D                     	;# 
  2607  018E                     	;# 
  2608  0197                     	;# 
  2609  0199                     	;# 
  2610  0199                     	;# 
  2611  0199                     	;# 
  2612  019A                     	;# 
  2613  019A                     	;# 
  2614  019A                     	;# 
  2615  019B                     	;# 
  2616  019B                     	;# 
  2617  019B                     	;# 
  2618  019B                     	;# 
  2619  019B                     	;# 
  2620  019C                     	;# 
  2621  019C                     	;# 
  2622  019C                     	;# 
  2623  019D                     	;# 
  2624  019D                     	;# 
  2625  019D                     	;# 
  2626  019E                     	;# 
  2627  019E                     	;# 
  2628  019E                     	;# 
  2629  019F                     	;# 
  2630  019F                     	;# 
  2631  019F                     	;# 
  2632  019F                     	;# 
  2633  019F                     	;# 
  2634  020C                     	;# 
  2635  020D                     	;# 
  2636  020E                     	;# 
  2637  0211                     	;# 
  2638  0211                     	;# 
  2639  0212                     	;# 
  2640  0212                     	;# 
  2641  0213                     	;# 
  2642  0213                     	;# 
  2643  0214                     	;# 
  2644  0214                     	;# 
  2645  0215                     	;# 
  2646  0215                     	;# 
  2647  0215                     	;# 
  2648  0215                     	;# 
  2649  0216                     	;# 
  2650  0216                     	;# 
  2651  0217                     	;# 
  2652  0217                     	;# 
  2653  0219                     	;# 
  2654  021A                     	;# 
  2655  021B                     	;# 
  2656  021C                     	;# 
  2657  021D                     	;# 
  2658  021D                     	;# 
  2659  021E                     	;# 
  2660  021F                     	;# 
  2661  028C                     	;# 
  2662  028D                     	;# 
  2663  028E                     	;# 
  2664  0291                     	;# 
  2665  0291                     	;# 
  2666  0292                     	;# 
  2667  0293                     	;# 
  2668  0294                     	;# 
  2669  0295                     	;# 
  2670  0295                     	;# 
  2671  0296                     	;# 
  2672  0297                     	;# 
  2673  0298                     	;# 
  2674  029F                     	;# 
  2675  030C                     	;# 
  2676  030D                     	;# 
  2677  030E                     	;# 
  2678  0311                     	;# 
  2679  0311                     	;# 
  2680  0312                     	;# 
  2681  0313                     	;# 
  2682  0314                     	;# 
  2683  0315                     	;# 
  2684  0315                     	;# 
  2685  0316                     	;# 
  2686  0317                     	;# 
  2687  0318                     	;# 
  2688  038C                     	;# 
  2689  038D                     	;# 
  2690  038E                     	;# 
  2691  0391                     	;# 
  2692  0392                     	;# 
  2693  0393                     	;# 
  2694  0394                     	;# 
  2695  0395                     	;# 
  2696  0396                     	;# 
  2697  0397                     	;# 
  2698  0398                     	;# 
  2699  0399                     	;# 
  2700  039A                     	;# 
  2701  039C                     	;# 
  2702  039D                     	;# 
  2703  039E                     	;# 
  2704  039F                     	;# 
  2705  0411                     	;# 
  2706  0411                     	;# 
  2707  0412                     	;# 
  2708  0413                     	;# 
  2709  0414                     	;# 
  2710  0415                     	;# 
  2711  0416                     	;# 
  2712  0417                     	;# 
  2713  0418                     	;# 
  2714  0418                     	;# 
  2715  0419                     	;# 
  2716  041A                     	;# 
  2717  041B                     	;# 
  2718  041C                     	;# 
  2719  041D                     	;# 
  2720  041E                     	;# 
  2721  041F                     	;# 
  2722  0498                     	;# 
  2723  0498                     	;# 
  2724  0499                     	;# 
  2725  049A                     	;# 
  2726  049B                     	;# 
  2727  049B                     	;# 
  2728  049C                     	;# 
  2729  049D                     	;# 
  2730  049E                     	;# 
  2731  049F                     	;# 
  2732  0617                     	;# 
  2733  0618                     	;# 
  2734  0619                     	;# 
  2735  0619                     	;# 
  2736  061A                     	;# 
  2737  061B                     	;# 
  2738  061C                     	;# 
  2739  061C                     	;# 
  2740  061F                     	;# 
  2741  0691                     	;# 
  2742  0692                     	;# 
  2743  0693                     	;# 
  2744  0694                     	;# 
  2745  0695                     	;# 
  2746  0696                     	;# 
  2747  0697                     	;# 
  2748  0698                     	;# 
  2749  0699                     	;# 
  2750  0711                     	;# 
  2751  0712                     	;# 
  2752  0713                     	;# 
  2753  0714                     	;# 
  2754  0715                     	;# 
  2755  0716                     	;# 
  2756  0717                     	;# 
  2757  0718                     	;# 
  2758  0719                     	;# 
  2759  0891                     	;# 
  2760  0891                     	;# 
  2761  0891                     	;# 
  2762  0891                     	;# 
  2763  0891                     	;# 
  2764  0891                     	;# 
  2765  0892                     	;# 
  2766  0892                     	;# 
  2767  0892                     	;# 
  2768  0893                     	;# 
  2769  0893                     	;# 
  2770  0893                     	;# 
  2771  0893                     	;# 
  2772  0893                     	;# 
  2773  0893                     	;# 
  2774  0894                     	;# 
  2775  0894                     	;# 
  2776  0894                     	;# 
  2777  0895                     	;# 
  2778  0895                     	;# 
  2779  0895                     	;# 
  2780  0896                     	;# 
  2781  0896                     	;# 
  2782  0896                     	;# 
  2783  089B                     	;# 
  2784  0911                     	;# 
  2785  0912                     	;# 
  2786  0913                     	;# 
  2787  0914                     	;# 
  2788  0915                     	;# 
  2789  0916                     	;# 
  2790  0918                     	;# 
  2791  0919                     	;# 
  2792  091A                     	;# 
  2793  091B                     	;# 
  2794  091C                     	;# 
  2795  091D                     	;# 
  2796  091E                     	;# 
  2797  091F                     	;# 
  2798  0E0F                     	;# 
  2799  0E10                     	;# 
  2800  0E11                     	;# 
  2801  0E12                     	;# 
  2802  0E13                     	;# 
  2803  0E14                     	;# 
  2804  0E15                     	;# 
  2805  0E16                     	;# 
  2806  0E17                     	;# 
  2807  0E18                     	;# 
  2808  0E19                     	;# 
  2809  0E1A                     	;# 
  2810  0E1B                     	;# 
  2811  0E1C                     	;# 
  2812  0E1D                     	;# 
  2813  0E1E                     	;# 
  2814  0E1F                     	;# 
  2815  0E20                     	;# 
  2816  0E21                     	;# 
  2817  0E22                     	;# 
  2818  0E24                     	;# 
  2819  0E25                     	;# 
  2820  0E28                     	;# 
  2821  0E29                     	;# 
  2822  0E2A                     	;# 
  2823  0E2B                     	;# 
  2824  0E2C                     	;# 
  2825  0E2D                     	;# 
  2826  0E2E                     	;# 
  2827  0E2F                     	;# 
  2828  0E90                     	;# 
  2829  0E91                     	;# 
  2830  0E92                     	;# 
  2831  0E94                     	;# 
  2832  0E95                     	;# 
  2833  0E9C                     	;# 
  2834  0E9D                     	;# 
  2835  0E9E                     	;# 
  2836  0E9F                     	;# 
  2837  0EA0                     	;# 
  2838  0EA1                     	;# 
  2839  0EA2                     	;# 
  2840  0EA3                     	;# 
  2841  0EA4                     	;# 
  2842  0EA5                     	;# 
  2843  0EA6                     	;# 
  2844  0EA7                     	;# 
  2845  0F0F                     	;# 
  2846  0F10                     	;# 
  2847  0F11                     	;# 
  2848  0F12                     	;# 
  2849  0F13                     	;# 
  2850  0F14                     	;# 
  2851  0F15                     	;# 
  2852  0F16                     	;# 
  2853  0F17                     	;# 
  2854  0F18                     	;# 
  2855  0F19                     	;# 
  2856  0F1A                     	;# 
  2857  0F1B                     	;# 
  2858  0F1C                     	;# 
  2859  0F1D                     	;# 
  2860  0F1E                     	;# 
  2861  0F1F                     	;# 
  2862  0F20                     	;# 
  2863  0F21                     	;# 
  2864  0F22                     	;# 
  2865  0F23                     	;# 
  2866  0F24                     	;# 
  2867  0F25                     	;# 
  2868  0F26                     	;# 
  2869  0F27                     	;# 
  2870  0F28                     	;# 
  2871  0F29                     	;# 
  2872  0F2A                     	;# 
  2873  0F2B                     	;# 
  2874  0F2C                     	;# 
  2875  0F2D                     	;# 
  2876  0F2E                     	;# 
  2877  0F2F                     	;# 
  2878  0F30                     	;# 
  2879  0F31                     	;# 
  2880  0F32                     	;# 
  2881  0F33                     	;# 
  2882  0F34                     	;# 
  2883  0F35                     	;# 
  2884  0F36                     	;# 
  2885  0F37                     	;# 
  2886  0FE4                     	;# 
  2887  0FE5                     	;# 
  2888  0FE6                     	;# 
  2889  0FE7                     	;# 
  2890  0FE8                     	;# 
  2891  0FE9                     	;# 
  2892  0FEA                     	;# 
  2893  0FEB                     	;# 
  2894  0FED                     	;# 
  2895  0FEE                     	;# 
  2896  0FEF                     	;# 
  2897                           
  2898                           	psect	idataCOMMON
  2899  05F4                     __pidataCOMMON:
  2900                           
  2901                           ;initializer for _blue@Led$F447
  2902  05F4  341F               	retlw	31
  2903                           
  2904                           	psect	idataBANK0
  2905  05F5                     __pidataBANK0:	
  2906                           ;initializer for _red@Led$F449
  2907                           
  2908  05F5  341F               	retlw	31
  2909                           
  2910                           ;initializer for _green@Led$F448
  2911  05F6  341F               	retlw	31
  2912                           
  2913                           	psect	stringtext1
  2914  0800                     __pstringtext1:
  2915  0800                     _NumberOfLEDs:
  2916  0800  343C               	retlw	60
  2917  0801  3400               	retlw	0
  2918  0802                     __end_of_NumberOfLEDs:
  2919  0011                     _PIR1bits	set	17
  2920  005F                     _GIE	set	95
  2921  008E                     _TRISC	set	142
  2922  008D                     _TRISB	set	141
  2923  008C                     _TRISA	set	140
  2924  0097                     _WDTCON	set	151
  2925  010E                     _LATC	set	270
  2926  010D                     _LATB	set	269
  2927  010C                     _LATA	set	268
  2928  019A                     _TX1REG	set	410
  2929  0199                     _RC1REG	set	409
  2930  019D                     _RC1STAbits	set	413
  2931  019C                     _SP1BRGH	set	412
  2932  019B                     _SP1BRGL	set	411
  2933  019E                     _TX1STA	set	414
  2934  019D                     _RC1STA	set	413
  2935  019F                     _BAUD1CON	set	415
  2936  018C                     _ANSELA	set	396
  2937  018D                     _ANSELB	set	397
  2938  018E                     _ANSELC	set	398
  2939  0214                     _SSP1STATbits	set	532
  2940  0211                     _SSP1BUF	set	529
  2941  0215                     _SSP1CON1bits	set	533
  2942  0212                     _SSP1ADD	set	530
  2943  0215                     _SSP1CON1	set	533
  2944  0214                     _SSP1STAT	set	532
  2945  020E                     _WPUC	set	526
  2946  020C                     _WPUA	set	524
  2947  020D                     _WPUB	set	525
  2948  028E                     _ODCONC	set	654
  2949  028D                     _ODCONB	set	653
  2950  028C                     _ODCONA	set	652
  2951  091E                     _OSCTUNE	set	2334
  2952  091F                     _OSCFRQ	set	2335
  2953  091D                     _OSCEN	set	2333
  2954  091B                     _OSCCON3	set	2331
  2955  0919                     _OSCCON1	set	2329
  2956  0E24                     _RXPPSbits	set	3620
  2957  0E20                     _SSP1CLKPPSbits	set	3616
  2958  0E21                     _SSP1DATPPSbits	set	3617
  2959  0E0F                     _PPSLOCKbits	set	3599
  2960  0E0F                     _PPSLOCK	set	3599
  2961  0E9E                     _RB6PPSbits	set	3742
  2962  0E9F                     _RB7PPSbits	set	3743
  2963  0E9C                     _RB4PPSbits	set	3740
  2964                           
  2965                           	psect	cinit
  2966  07E9                     start_initialization:	
  2967                           ; #config settings
  2968                           
  2969  07E9                     __initialization:
  2970                           
  2971                           ; Initialize objects allocated to COMMON
  2972  07E9  3185  25F4  3187   	fcall	__pidataCOMMON	;fetch initializer
  2973  07EC  00FD               	movwf	__pdataCOMMON& (0+127)
  2974                           
  2975                           ; Initialize objects allocated to BANK0
  2976  07ED  3185  25F5  3187   	fcall	__pidataBANK0	;fetch initializer
  2977  07F0  00BD               	movwf	__pdataBANK0& (0+127)
  2978  07F1  3185  25F6  3187   	fcall	__pidataBANK0+1	;fetch initializer
  2979  07F4  00BE               	movwf	(__pdataBANK0+1)& (0+127)
  2980                           
  2981                           ; Clear objects allocated to BANK0
  2982  07F5  3020               	movlw	low __pbssBANK0
  2983  07F6  0084               	movwf	4
  2984  07F7  3000               	movlw	high __pbssBANK0
  2985  07F8  0085               	movwf	5
  2986  07F9  3019               	movlw	25
  2987  07FA  3186  2607  3187   	fcall	clear_ram0
  2988  07FD                     end_of_initialization:	
  2989                           ;End of C runtime variable initialization code
  2990                           
  2991  07FD                     __end_of__initialization:
  2992  07FD  0020               	movlb	0
  2993  07FE  3186  2ED0         	ljmp	_main	;jump to C main() function
  2994                           
  2995                           	psect	dataCOMMON
  2996  007D                     __pdataCOMMON:
  2997  007D                     _blue@Led$F447:
  2998  007D                     	ds	1
  2999                           
  3000                           	psect	bssBANK0
  3001  0020                     __pbssBANK0:
  3002  0020                     _data:
  3003  0020                     	ds	8
  3004  0028                     _value:
  3005  0028                     	ds	7
  3006  002F                     _printCycle:
  3007  002F                     	ds	2
  3008  0031                     _index:
  3009  0031                     	ds	2
  3010  0033                     _setpoint@Led$F450:
  3011  0033                     	ds	1
  3012  0034                     _command:
  3013  0034                     	ds	1
  3014  0035                     _red:
  3015  0035                     	ds	1
  3016  0036                     _green:
  3017  0036                     	ds	1
  3018  0037                     _blue:
  3019  0037                     	ds	1
  3020  0038                     _setpoint:
  3021  0038                     	ds	1
  3022                           
  3023                           	psect	dataBANK0
  3024  003D                     __pdataBANK0:
  3025  003D                     _red@Led$F449:
  3026  003D                     	ds	1
  3027  003E                     _green@Led$F448:
  3028  003E                     	ds	1
  3029                           
  3030                           	psect	clrtext
  3031  0607                     clear_ram0:	
  3032                           ;	Called with FSR0 containing the base address, and
  3033                           ;	WREG with the size to clear
  3034                           
  3035  0607  0064               	clrwdt	;clear the watchdog before getting into this loop
  3036  0608                     clrloop0:
  3037  0608  0180               	clrf	0	;clear RAM location pointed to by FSR
  3038  0609  3101               	addfsr 0,1
  3039  060A  0B89               	decfsz	9,f	;Have we reached the end of clearing yet?
  3040  060B  2E08               	goto	clrloop0	;have we reached the end yet?
  3041  060C  3400               	retlw	0	;all done for this memory range, return
  3042                           
  3043                           	psect	cstackCOMMON
  3044  0070                     __pcstackCOMMON:
  3045  0070                     ?_PIN_MANAGER_Initialize:
  3046  0070                     ??_PIN_MANAGER_Initialize:	
  3047                           ; 1 bytes @ 0x0
  3048                           
  3049  0070                     ?_OSCILLATOR_Initialize:	
  3050                           ; 1 bytes @ 0x0
  3051                           
  3052  0070                     ??_OSCILLATOR_Initialize:	
  3053                           ; 1 bytes @ 0x0
  3054                           
  3055  0070                     ?_WDT_Initialize:	
  3056                           ; 1 bytes @ 0x0
  3057                           
  3058  0070                     ??_WDT_Initialize:	
  3059                           ; 1 bytes @ 0x0
  3060                           
  3061  0070                     ?_SPI1_Initialize:	
  3062                           ; 1 bytes @ 0x0
  3063                           
  3064  0070                     ??_SPI1_Initialize:	
  3065                           ; 1 bytes @ 0x0
  3066                           
  3067  0070                     ?_EUSART_Initialize:	
  3068                           ; 1 bytes @ 0x0
  3069                           
  3070  0070                     ??_EUSART_Initialize:	
  3071                           ; 1 bytes @ 0x0
  3072                           
  3073  0070                     ?_LED:	
  3074                           ; 1 bytes @ 0x0
  3075                           
  3076  0070                     ?_UART:	
  3077                           ; 1 bytes @ 0x0
  3078                           
  3079  0070                     ?_EUSART_Read:	
  3080                           ; 1 bytes @ 0x0
  3081                           
  3082  0070                     ??_EUSART_Read:	
  3083                           ; 1 bytes @ 0x0
  3084                           
  3085  0070                     ?_LED_SetSetpoint:	
  3086                           ; 1 bytes @ 0x0
  3087                           
  3088  0070                     ??_LED_SetSetpoint:	
  3089                           ; 1 bytes @ 0x0
  3090                           
  3091  0070                     ?_LED_Setblue:	
  3092                           ; 1 bytes @ 0x0
  3093                           
  3094  0070                     ??_LED_Setblue:	
  3095                           ; 1 bytes @ 0x0
  3096                           
  3097  0070                     ?_LED_Setgreen:	
  3098                           ; 1 bytes @ 0x0
  3099                           
  3100  0070                     ??_LED_Setgreen:	
  3101                           ; 1 bytes @ 0x0
  3102                           
  3103  0070                     ?_LED_Setred:	
  3104                           ; 1 bytes @ 0x0
  3105                           
  3106  0070                     ??_LED_Setred:	
  3107                           ; 1 bytes @ 0x0
  3108                           
  3109  0070                     ?_Send_LED_StartFrame:	
  3110                           ; 1 bytes @ 0x0
  3111                           
  3112  0070                     ?_Send_LED_EndFrame:	
  3113                           ; 1 bytes @ 0x0
  3114                           
  3115  0070                     ?_SYSTEM_Initialize:	
  3116                           ; 1 bytes @ 0x0
  3117                           
  3118  0070                     ?_SPI1_Exchange8bit:	
  3119                           ; 1 bytes @ 0x0
  3120                           
  3121  0070                     ??_SPI1_Exchange8bit:	
  3122                           ; 1 bytes @ 0x0
  3123                           
  3124  0070                     ?_main:	
  3125                           ; 1 bytes @ 0x0
  3126                           
  3127  0070                     ?_islower:	
  3128                           ; 1 bytes @ 0x0
  3129                           
  3130  0070                     PIN_MANAGER_Initialize@state:	
  3131                           ; 2 bytes @ 0x0
  3132                           
  3133  0070                     SPI1_Exchange8bit@data:	
  3134                           ; 1 bytes @ 0x0
  3135                           
  3136  0070                     islower@c:	
  3137                           ; 1 bytes @ 0x0
  3138                           
  3139                           
  3140                           ; 2 bytes @ 0x0
  3141  0070                     	ds	1
  3142  0071                     ??_Send_LED_StartFrame:
  3143  0071                     ?_Send_LED_Frame:	
  3144                           ; 1 bytes @ 0x1
  3145                           
  3146  0071                     ??_Send_LED_EndFrame:	
  3147                           ; 1 bytes @ 0x1
  3148                           
  3149  0071                     ??_SYSTEM_Initialize:	
  3150                           ; 1 bytes @ 0x1
  3151                           
  3152  0071                     LED_SetSetpoint@value:	
  3153                           ; 1 bytes @ 0x1
  3154                           
  3155  0071                     LED_Setblue@value:	
  3156                           ; 1 bytes @ 0x1
  3157                           
  3158  0071                     LED_Setgreen@value:	
  3159                           ; 1 bytes @ 0x1
  3160                           
  3161  0071                     LED_Setred@value:	
  3162                           ; 1 bytes @ 0x1
  3163                           
  3164  0071                     Send_LED_Frame@blue:	
  3165                           ; 1 bytes @ 0x1
  3166                           
  3167                           
  3168                           ; 1 bytes @ 0x1
  3169  0071                     	ds	1
  3170  0072                     ??_islower:
  3171  0072                     Send_LED_Frame@green:	
  3172                           ; 1 bytes @ 0x2
  3173                           
  3174  0072                     Send_LED_StartFrame@i:	
  3175                           ; 1 bytes @ 0x2
  3176                           
  3177  0072                     Send_LED_EndFrame@i:	
  3178                           ; 2 bytes @ 0x2
  3179                           
  3180                           
  3181                           ; 2 bytes @ 0x2
  3182  0072                     	ds	1
  3183  0073                     Send_LED_Frame@red:
  3184                           
  3185                           ; 1 bytes @ 0x3
  3186  0073                     	ds	1
  3187  0074                     ??_Send_LED_Frame:
  3188  0074                     Send_LED_Frame@intensity:	
  3189                           ; 1 bytes @ 0x4
  3190                           
  3191                           
  3192                           ; 1 bytes @ 0x4
  3193  0074                     	ds	1
  3194  0075                     ??_LED:
  3195                           
  3196                           ; 1 bytes @ 0x5
  3197  0075                     	ds	1
  3198  0076                     ?_toupper:
  3199  0076                     toupper@c:	
  3200                           ; 2 bytes @ 0x6
  3201                           
  3202                           
  3203                           ; 2 bytes @ 0x6
  3204  0076                     	ds	2
  3205  0078                     ??_toupper:
  3206  0078                     LED@led:	
  3207                           ; 1 bytes @ 0x8
  3208                           
  3209                           
  3210                           ; 1 bytes @ 0x8
  3211  0078                     	ds	2
  3212  007A                     ??_UART:
  3213                           
  3214                           ; 1 bytes @ 0xA
  3215  007A                     	ds	3
  3216                           
  3217                           	psect	cstackBANK0
  3218  0039                     __pcstackBANK0:
  3219  0039                     UART@i:
  3220                           
  3221                           ; 2 bytes @ 0x0
  3222  0039                     	ds	2
  3223  003B                     ??_main:
  3224                           
  3225                           ; 1 bytes @ 0x2
  3226  003B                     	ds	2
  3227                           
  3228                           	psect	maintext
  3229  06D0                     __pmaintext:	
  3230 ;;
  3231 ;;Main: autosize = 0, tempsize = 2, incstack = 0, save=0
  3232 ;;
  3233 ;; *************** function _main *****************
  3234 ;; Defined at:
  3235 ;;		line 55 in file "main.c"
  3236 ;; Parameters:    Size  Location     Type
  3237 ;;		None
  3238 ;; Auto vars:     Size  Location     Type
  3239 ;;		None
  3240 ;; Return value:  Size  Location     Type
  3241 ;;                  1    wreg      void 
  3242 ;; Registers used:
  3243 ;;		wreg, fsr0l, fsr0h, fsr1l, fsr1h, status,2, status,0, pclath, cstack
  3244 ;; Tracked objects:
  3245 ;;		On entry : B1F/0
  3246 ;;		On exit  : 0/0
  3247 ;;		Unchanged: 0/0
  3248 ;; Data sizes:     COMMON   BANK0   BANK1   BANK2   BANK3   BANK4   BANK5   BANK6   BANK7   BANK8   BANK9  BANK10  BANK1
      +1  BANK12  BANK13  BANK14  BANK15  BANK16  BANK17  BANK18  BANK19  BANK20  BANK21  BANK22  BANK23  BANK24  BANK25
  3249 ;;      Params:         0       0       0       0       0       0       0       0       0       0       0       0       
      +0       0       0       0       0       0       0       0       0       0       0       0       0       0       0
  3250 ;;      Locals:         0       0       0       0       0       0       0       0       0       0       0       0       
      +0       0       0       0       0       0       0       0       0       0       0       0       0       0       0
  3251 ;;      Temps:          0       2       0       0       0       0       0       0       0       0       0       0       
      +0       0       0       0       0       0       0       0       0       0       0       0       0       0       0
  3252 ;;      Totals:         0       2       0       0       0       0       0       0       0       0       0       0       
      +0       0       0       0       0       0       0       0       0       0       0       0       0       0       0
  3253 ;;Total ram usage:        2 bytes
  3254 ;; Hardware stack levels required when called: 3
  3255 ;; This function calls:
  3256 ;;		_LED
  3257 ;;		_SYSTEM_Initialize
  3258 ;;		_UART
  3259 ;; This function is called by:
  3260 ;;		Startup code after reset
  3261 ;; This function uses a non-reentrant model
  3262 ;;
  3263                           
  3264  06D0                     _main:	
  3265                           ;psect for function _main
  3266                           
  3267  06D0                     l1330:	
  3268                           ;incstack = 0
  3269                           ; Regs used in _main: [wreg-fsr1h+status,2+status,0+pclath+cstack]
  3270                           
  3271                           
  3272                           ;main.c: 57:     SYSTEM_Initialize();
  3273  06D0  3186  264E  3186   	fcall	_SYSTEM_Initialize
  3274  06D3                     l143:	
  3275                           ;main.c: 75:     while (1) {
  3276                           
  3277                           
  3278                           ;main.c: 76:         LED();
  3279  06D3  3186  26E8  3186   	fcall	_LED
  3280  06D6                     l1332:
  3281                           
  3282                           ;main.c: 77:         UART();
  3283  06D6  3187  2761  3186   	fcall	_UART
  3284  06D9                     l1334:
  3285                           
  3286                           ;main.c: 78:         _delay((unsigned long)((1000)*(32000000/4000.0)));
  3287  06D9  3029               	movlw	41
  3288  06DA  0020               	movlb	0	; select bank0
  3289  06DB  00BC               	movwf	??_main+1
  3290  06DC  3096               	movlw	150
  3291  06DD  00BB               	movwf	??_main
  3292  06DE  307F               	movlw	127
  3293  06DF                     u407:
  3294  06DF  0B89               	decfsz	9,f
  3295  06E0  2EDF               	goto	u407
  3296  06E1  0BBB               	decfsz	??_main,f
  3297  06E2  2EDF               	goto	u407
  3298  06E3  0BBC               	decfsz	??_main+1,f
  3299  06E4  2EDF               	goto	u407
  3300  06E5  2ED3               	goto	l143
  3301  06E6  3180  2802         	ljmp	start
  3302  06E8                     __end_of_main:
  3303                           
  3304                           	psect	text1
  3305  0761                     __ptext1:	
  3306 ;; *************** function _UART *****************
  3307 ;; Defined at:
  3308 ;;		line 26 in file "UART.c"
  3309 ;; Parameters:    Size  Location     Type
  3310 ;;		None
  3311 ;; Auto vars:     Size  Location     Type
  3312 ;;  i               2    0[BANK0 ] int 
  3313 ;; Return value:  Size  Location     Type
  3314 ;;                  1    wreg      void 
  3315 ;; Registers used:
  3316 ;;		wreg, fsr0l, fsr0h, fsr1l, fsr1h, status,2, status,0, pclath, cstack
  3317 ;; Tracked objects:
  3318 ;;		On entry : 0/0
  3319 ;;		On exit  : 0/0
  3320 ;;		Unchanged: 0/0
  3321 ;; Data sizes:     COMMON   BANK0   BANK1   BANK2   BANK3   BANK4   BANK5   BANK6   BANK7   BANK8   BANK9  BANK10  BANK1
      +1  BANK12  BANK13  BANK14  BANK15  BANK16  BANK17  BANK18  BANK19  BANK20  BANK21  BANK22  BANK23  BANK24  BANK25
  3322 ;;      Params:         0       0       0       0       0       0       0       0       0       0       0       0       
      +0       0       0       0       0       0       0       0       0       0       0       0       0       0       0
  3323 ;;      Locals:         0       2       0       0       0       0       0       0       0       0       0       0       
      +0       0       0       0       0       0       0       0       0       0       0       0       0       0       0
  3324 ;;      Temps:          3       0       0       0       0       0       0       0       0       0       0       0       
      +0       0       0       0       0       0       0       0       0       0       0       0       0       0       0
  3325 ;;      Totals:         3       2       0       0       0       0       0       0       0       0       0       0       
      +0       0       0       0       0       0       0       0       0       0       0       0       0       0       0
  3326 ;;Total ram usage:        5 bytes
  3327 ;; Hardware stack levels used: 1
  3328 ;; Hardware stack levels required when called: 2
  3329 ;; This function calls:
  3330 ;;		_EUSART_Read
  3331 ;;		_LED_SetSetpoint
  3332 ;;		_LED_Setblue
  3333 ;;		_LED_Setgreen
  3334 ;;		_LED_Setred
  3335 ;;		_toupper
  3336 ;; This function is called by:
  3337 ;;		_main
  3338 ;; This function uses a non-reentrant model
  3339 ;;
  3340                           
  3341  0761                     _UART:	
  3342                           ;psect for function _UART
  3343                           
  3344  0761                     l1256:	
  3345                           ;incstack = 0
  3346                           ; Regs used in _UART: [wreg-fsr1h+status,2+status,0+pclath+cstack]
  3347                           
  3348                           
  3349                           ;UART.c: 29:     if ((PIR1bits.RCIF)) {
  3350  0761  0020               	movlb	0	; select bank0
  3351  0762  1E91               	btfss	17,5	;volatile
  3352  0763  2F65               	goto	u311
  3353  0764  2F66               	goto	u310
  3354  0765                     u311:
  3355  0765  2FE8               	goto	l195
  3356  0766                     u310:
  3357  0766                     l1258:
  3358                           
  3359                           ;UART.c: 30:         index = 0;
  3360  0766  01B1               	clrf	_index
  3361  0767  01B2               	clrf	_index+1
  3362  0768                     l1260:
  3363                           
  3364                           ;UART.c: 31:         _delay((unsigned long)((5)*(32000000/4000.0)));
  3365  0768  3034               	movlw	52
  3366  0769  00FA               	movwf	??_UART
  3367  076A  30F2               	movlw	242
  3368  076B                     u417:
  3369  076B  0B89               	decfsz	9,f
  3370  076C  2F6B               	goto	u417
  3371  076D  0BFA               	decfsz	??_UART,f
  3372  076E  2F6B               	goto	u417
  3373                           
  3374                           ;UART.c: 32:         while ((PIR1bits.RCIF)) {
  3375  076F  2F7F               	goto	l1266
  3376  0770                     l1262:
  3377                           
  3378                           ;UART.c: 33:             data[index] = EUSART_Read();
  3379  0770  3186  2640  3187   	fcall	_EUSART_Read
  3380  0773  00FA               	movwf	??_UART
  3381  0774  0020               	movlb	0	; select bank0
  3382  0775  0831               	movf	_index,w
  3383  0776  3E20               	addlw	(low (_data| 0))& (0+255)
  3384  0777  0086               	movwf	6
  3385  0778  0187               	clrf	7
  3386  0779  087A               	movf	??_UART,w
  3387  077A  0081               	movwf	1
  3388  077B                     l1264:
  3389                           
  3390                           ;UART.c: 34:             index++;
  3391  077B  3001               	movlw	1
  3392  077C  07B1               	addwf	_index,f
  3393  077D  3000               	movlw	0
  3394  077E  3DB2               	addwfc	_index+1,f
  3395  077F                     l1266:
  3396                           
  3397                           ;UART.c: 32:         while ((PIR1bits.RCIF)) {
  3398  077F  0020               	movlb	0	; select bank0
  3399  0780  1A91               	btfsc	17,5	;volatile
  3400  0781  2F83               	goto	u321
  3401  0782  2F84               	goto	u320
  3402  0783                     u321:
  3403  0783  2F70               	goto	l1262
  3404  0784                     u320:
  3405  0784                     l1268:
  3406                           
  3407                           ;UART.c: 36:         data[index] = '\0';
  3408  0784  0831               	movf	_index,w
  3409  0785  3E20               	addlw	(low (_data| 0))& (0+255)
  3410  0786  0086               	movwf	6
  3411  0787  0187               	clrf	7
  3412  0788  0181               	clrf	1
  3413  0789                     l1270:
  3414                           
  3415                           ;UART.c: 37:         command = data[0];
  3416  0789  0820               	movf	_data,w
  3417  078A  00FA               	movwf	??_UART
  3418  078B  087A               	movf	??_UART,w
  3419  078C  00B4               	movwf	_command
  3420  078D                     l1272:
  3421                           
  3422                           ;UART.c: 38:         command = (char) toupper(command);
  3423  078D  0834               	movf	_command,w
  3424  078E  00FA               	movwf	??_UART
  3425  078F  01FB               	clrf	??_UART+1
  3426  0790  087A               	movf	??_UART,w
  3427  0791  00F6               	movwf	toupper@c
  3428  0792  087B               	movf	??_UART+1,w
  3429  0793  00F7               	movwf	toupper@c+1
  3430  0794  3186  2671  3187   	fcall	_toupper
  3431  0797  0876               	movf	?_toupper,w
  3432  0798  00FC               	movwf	??_UART+2
  3433  0799  087C               	movf	??_UART+2,w
  3434  079A  0020               	movlb	0	; select bank0
  3435  079B  00B4               	movwf	_command
  3436  079C                     l1274:
  3437                           
  3438                           ;UART.c: 39:         for (int i = 0; i <8; i++){
  3439  079C  01B9               	clrf	UART@i
  3440  079D  01BA               	clrf	UART@i+1
  3441  079E                     l1280:
  3442                           
  3443                           ;UART.c: 40:             value[i] = data[i+1];
  3444  079E  0020               	movlb	0	; select bank0
  3445  079F  0839               	movf	UART@i,w
  3446  07A0  3E21               	addlw	(low ((_data| 0+1)))& (0+255)
  3447  07A1  0086               	movwf	6
  3448  07A2  0187               	clrf	7
  3449  07A3  0801               	movf	1,w
  3450  07A4  00FA               	movwf	??_UART
  3451  07A5  0839               	movf	UART@i,w
  3452  07A6  3E28               	addlw	(low (_value| 0))& (0+255)
  3453  07A7  0086               	movwf	6
  3454  07A8  0187               	clrf	7
  3455  07A9  087A               	movf	??_UART,w
  3456  07AA  0081               	movwf	1
  3457  07AB                     l1282:
  3458                           
  3459                           ;UART.c: 41:         }
  3460  07AB  3001               	movlw	1
  3461  07AC  07B9               	addwf	UART@i,f
  3462  07AD  3000               	movlw	0
  3463  07AE  3DBA               	addwfc	UART@i+1,f
  3464  07AF                     l1284:
  3465  07AF  083A               	movf	UART@i+1,w
  3466  07B0  3A80               	xorlw	128
  3467  07B1  00FA               	movwf	??_UART
  3468  07B2  3080               	movlw	128
  3469  07B3  027A               	subwf	??_UART,w
  3470  07B4  1D03               	skipz
  3471  07B5  2FB8               	goto	u335
  3472  07B6  3008               	movlw	8
  3473  07B7  0239               	subwf	UART@i,w
  3474  07B8                     u335:
  3475  07B8  1C03               	skipc
  3476  07B9  2FBB               	goto	u331
  3477  07BA  2FBC               	goto	u330
  3478  07BB                     u331:
  3479  07BB  2F9E               	goto	l1280
  3480  07BC                     u330:
  3481  07BC  2FD1               	goto	l1296
  3482  07BD                     l1286:
  3483                           
  3484                           ;UART.c: 46:                 LED_SetSetpoint(setpoint);
  3485  07BD  3000               	movlw	0
  3486  07BE  3186  260D  3187   	fcall	_LED_SetSetpoint
  3487                           
  3488                           ;UART.c: 47:                 break;
  3489  07C1  2FE8               	goto	l195
  3490  07C2                     l1288:
  3491                           
  3492                           ;UART.c: 50:                 LED_Setblue(blue);
  3493  07C2  3000               	movlw	0
  3494  07C3  3186  2601  3187   	fcall	_LED_Setblue
  3495                           
  3496                           ;UART.c: 51:                 break;
  3497  07C6  2FE8               	goto	l195
  3498  07C7                     l1290:
  3499                           
  3500                           ;UART.c: 54:                 LED_Setgreen(green);
  3501  07C7  3000               	movlw	0
  3502  07C8  3186  2614  3187   	fcall	_LED_Setgreen
  3503                           
  3504                           ;UART.c: 55:                 break;
  3505  07CB  2FE8               	goto	l195
  3506  07CC                     l1292:
  3507                           
  3508                           ;UART.c: 58:                 LED_Setred(red);
  3509  07CC  3000               	movlw	0
  3510  07CD  3186  261B  3187   	fcall	_LED_Setred
  3511                           
  3512                           ;UART.c: 59:                 break;
  3513  07D0  2FE8               	goto	l195
  3514  07D1                     l1296:
  3515  07D1  0020               	movlb	0	; select bank0
  3516  07D2  0834               	movf	_command,w
  3517  07D3  00FA               	movwf	??_UART
  3518  07D4  01FB               	clrf	??_UART+1
  3519                           
  3520                           ; Switch on 2 bytes has been partitioned into a top level switch of size 1, and 1 sub-sw
      +                          itches
  3521                           ; Switch size 1, requested type "simple"
  3522                           ; Number of cases is 1, Range of values is 0 to 0
  3523                           ; switch strategies available:
  3524                           ; Name         Instructions Cycles
  3525                           ; simple_byte            4     3 (average)
  3526                           ; direct_byte            8     6 (fixed)
  3527                           ; jumptable            260     6 (fixed)
  3528                           ;	Chosen strategy is simple_byte
  3529  07D5  087B               	movf	??_UART+1,w
  3530  07D6  3A00               	xorlw	0	; case 0
  3531  07D7  1903               	skipnz
  3532  07D8  2FDA               	goto	l1360
  3533  07D9  2FE8               	goto	l195
  3534  07DA                     l1360:
  3535                           
  3536                           ; Switch size 1, requested type "simple"
  3537                           ; Number of cases is 4, Range of values is 76 to 114
  3538                           ; switch strategies available:
  3539                           ; Name         Instructions Cycles
  3540                           ; simple_byte           13     7 (average)
  3541                           ; direct_byte           87     9 (fixed)
  3542                           ; jumptable            263     9 (fixed)
  3543                           ;	Chosen strategy is simple_byte
  3544  07DA  087A               	movf	??_UART,w
  3545  07DB  3A4C               	xorlw	76	; case 76
  3546  07DC  1903               	skipnz
  3547  07DD  2FBD               	goto	l1286
  3548  07DE  3A2E               	xorlw	46	; case 98
  3549  07DF  1903               	skipnz
  3550  07E0  2FC2               	goto	l1288
  3551  07E1  3A05               	xorlw	5	; case 103
  3552  07E2  1903               	skipnz
  3553  07E3  2FC7               	goto	l1290
  3554  07E4  3A15               	xorlw	21	; case 114
  3555  07E5  1903               	skipnz
  3556  07E6  2FCC               	goto	l1292
  3557  07E7  2FE8               	goto	l195
  3558  07E8                     l195:
  3559  07E8  0008               	return
  3560  07E9                     __end_of_UART:
  3561                           
  3562                           	psect	text2
  3563  0671                     __ptext2:	
  3564 ;; *************** function _toupper *****************
  3565 ;; Defined at:
  3566 ;;		line 4 in file "C:\Program Files\Microchip\xc8\v2.35\pic\sources\c99\common\toupper.c"
  3567 ;; Parameters:    Size  Location     Type
  3568 ;;  c               2    6[COMMON] int 
  3569 ;; Auto vars:     Size  Location     Type
  3570 ;;		None
  3571 ;; Return value:  Size  Location     Type
  3572 ;;                  2    6[COMMON] int 
  3573 ;; Registers used:
  3574 ;;		wreg, status,2, status,0
  3575 ;; Tracked objects:
  3576 ;;		On entry : 0/0
  3577 ;;		On exit  : 0/0
  3578 ;;		Unchanged: 0/0
  3579 ;; Data sizes:     COMMON   BANK0   BANK1   BANK2   BANK3   BANK4   BANK5   BANK6   BANK7   BANK8   BANK9  BANK10  BANK1
      +1  BANK12  BANK13  BANK14  BANK15  BANK16  BANK17  BANK18  BANK19  BANK20  BANK21  BANK22  BANK23  BANK24  BANK25
  3580 ;;      Params:         2       0       0       0       0       0       0       0       0       0       0       0       
      +0       0       0       0       0       0       0       0       0       0       0       0       0       0       0
  3581 ;;      Locals:         0       0       0       0       0       0       0       0       0       0       0       0       
      +0       0       0       0       0       0       0       0       0       0       0       0       0       0       0
  3582 ;;      Temps:          2       0       0       0       0       0       0       0       0       0       0       0       
      +0       0       0       0       0       0       0       0       0       0       0       0       0       0       0
  3583 ;;      Totals:         4       0       0       0       0       0       0       0       0       0       0       0       
      +0       0       0       0       0       0       0       0       0       0       0       0       0       0       0
  3584 ;;Total ram usage:        4 bytes
  3585 ;; Hardware stack levels used: 1
  3586 ;; Hardware stack levels required when called: 1
  3587 ;; This function calls:
  3588 ;;		_islower
  3589 ;; This function is called by:
  3590 ;;		_UART
  3591 ;; This function uses a non-reentrant model
  3592 ;;
  3593                           
  3594  0671                     _toupper:	
  3595                           ;psect for function _toupper
  3596                           
  3597  0671                     l1192:	
  3598                           ;incstack = 0
  3599                           ; Regs used in _toupper: [wreg+status,2+status,0]
  3600                           
  3601  0671                     l1196:
  3602  0671  0876               	movf	toupper@c,w
  3603  0672  3E9F               	addlw	159
  3604  0673  00F8               	movwf	??_toupper
  3605  0674  30FF               	movlw	255
  3606  0675  3D77               	addwfc	toupper@c+1,w
  3607  0676  00F9               	movwf	??_toupper+1
  3608  0677  3000               	movlw	0
  3609  0678  0279               	subwf	??_toupper+1,w
  3610  0679  301A               	movlw	26
  3611  067A  1903               	skipnz
  3612  067B  0278               	subwf	??_toupper,w
  3613  067C  1803               	skipnc
  3614  067D  2E7F               	goto	u261
  3615  067E  2E80               	goto	u260
  3616  067F                     u261:
  3617  067F  2E87               	goto	l898
  3618  0680                     u260:
  3619  0680                     l1198:
  3620  0680  305F               	movlw	95
  3621  0681  0576               	andwf	toupper@c,w
  3622  0682  00F6               	movwf	?_toupper
  3623  0683  3000               	movlw	0
  3624  0684  0577               	andwf	toupper@c+1,w
  3625  0685  00F7               	movwf	?_toupper+1
  3626  0686  2E87               	goto	l901
  3627  0687                     l898:
  3628  0687                     l901:
  3629  0687  0008               	return
  3630  0688                     __end_of_toupper:
  3631                           
  3632                           	psect	text3
  3633  06B8                     __ptext3:	
  3634 ;; *************** function _islower *****************
  3635 ;; Defined at:
  3636 ;;		line 5 in file "C:\Program Files\Microchip\xc8\v2.35\pic\sources\c99\common\islower.c"
  3637 ;; Parameters:    Size  Location     Type
  3638 ;;  c               2    0[COMMON] int 
  3639 ;; Auto vars:     Size  Location     Type
  3640 ;;		None
  3641 ;; Return value:  Size  Location     Type
  3642 ;;                  2    0[COMMON] int 
  3643 ;; Registers used:
  3644 ;;		wreg, status,2, status,0
  3645 ;; Tracked objects:
  3646 ;;		On entry : 0/0
  3647 ;;		On exit  : 0/0
  3648 ;;		Unchanged: 0/0
  3649 ;; Data sizes:     COMMON   BANK0   BANK1   BANK2   BANK3   BANK4   BANK5   BANK6   BANK7   BANK8   BANK9  BANK10  BANK1
      +1  BANK12  BANK13  BANK14  BANK15  BANK16  BANK17  BANK18  BANK19  BANK20  BANK21  BANK22  BANK23  BANK24  BANK25
  3650 ;;      Params:         2       0       0       0       0       0       0       0       0       0       0       0       
      +0       0       0       0       0       0       0       0       0       0       0       0       0       0       0
  3651 ;;      Locals:         0       0       0       0       0       0       0       0       0       0       0       0       
      +0       0       0       0       0       0       0       0       0       0       0       0       0       0       0
  3652 ;;      Temps:          4       0       0       0       0       0       0       0       0       0       0       0       
      +0       0       0       0       0       0       0       0       0       0       0       0       0       0       0
  3653 ;;      Totals:         6       0       0       0       0       0       0       0       0       0       0       0       
      +0       0       0       0       0       0       0       0       0       0       0       0       0       0       0
  3654 ;;Total ram usage:        6 bytes
  3655 ;; Hardware stack levels used: 1
  3656 ;; This function calls:
  3657 ;;		Nothing
  3658 ;; This function is called by:
  3659 ;;		_toupper
  3660 ;; This function uses a non-reentrant model
  3661 ;;
  3662                           
  3663  06B8                     _islower:	
  3664                           ;psect for function _islower
  3665                           
  3666  06B8                     l1180:	
  3667                           ;incstack = 0
  3668                           ; Regs used in _islower: [wreg+status,2+status,0]
  3669                           
  3670  06B8  0870               	movf	islower@c,w
  3671  06B9  3E9F               	addlw	159
  3672  06BA  00F2               	movwf	??_islower
  3673  06BB  30FF               	movlw	255
  3674  06BC  3D71               	addwfc	islower@c+1,w
  3675  06BD  00F3               	movwf	??_islower+1
  3676  06BE  3000               	movlw	0
  3677  06BF  0273               	subwf	??_islower+1,w
  3678  06C0  301A               	movlw	26
  3679  06C1  1903               	skipnz
  3680  06C2  0272               	subwf	??_islower,w
  3681  06C3  1C03               	skipc
  3682  06C4  2EC6               	goto	u221
  3683  06C5  2EC8               	goto	u220
  3684  06C6                     u221:
  3685  06C6  3001               	movlw	1
  3686  06C7  2EC9               	goto	u230
  3687  06C8                     u220:
  3688  06C8  3000               	movlw	0
  3689  06C9                     u230:
  3690  06C9  00F4               	movwf	??_islower+2
  3691  06CA  01F5               	clrf	??_islower+3
  3692  06CB  0874               	movf	??_islower+2,w
  3693  06CC  00F0               	movwf	?_islower
  3694  06CD  0875               	movf	??_islower+3,w
  3695  06CE  00F1               	movwf	?_islower+1
  3696  06CF                     l907:
  3697  06CF  0008               	return
  3698  06D0                     __end_of_islower:
  3699                           
  3700                           	psect	text4
  3701  061B                     __ptext4:	
  3702 ;; *************** function _LED_Setred *****************
  3703 ;; Defined at:
  3704 ;;		line 21 in file "Led.c"
  3705 ;; Parameters:    Size  Location     Type
  3706 ;;  value           1    wreg     unsigned char 
  3707 ;; Auto vars:     Size  Location     Type
  3708 ;;  value           1    1[COMMON] unsigned char 
  3709 ;; Return value:  Size  Location     Type
  3710 ;;                  1    wreg      void 
  3711 ;; Registers used:
  3712 ;;		wreg
  3713 ;; Tracked objects:
  3714 ;;		On entry : 0/0
  3715 ;;		On exit  : 0/0
  3716 ;;		Unchanged: 0/0
  3717 ;; Data sizes:     COMMON   BANK0   BANK1   BANK2   BANK3   BANK4   BANK5   BANK6   BANK7   BANK8   BANK9  BANK10  BANK1
      +1  BANK12  BANK13  BANK14  BANK15  BANK16  BANK17  BANK18  BANK19  BANK20  BANK21  BANK22  BANK23  BANK24  BANK25
  3718 ;;      Params:         0       0       0       0       0       0       0       0       0       0       0       0       
      +0       0       0       0       0       0       0       0       0       0       0       0       0       0       0
  3719 ;;      Locals:         1       0       0       0       0       0       0       0       0       0       0       0       
      +0       0       0       0       0       0       0       0       0       0       0       0       0       0       0
  3720 ;;      Temps:          1       0       0       0       0       0       0       0       0       0       0       0       
      +0       0       0       0       0       0       0       0       0       0       0       0       0       0       0
  3721 ;;      Totals:         2       0       0       0       0       0       0       0       0       0       0       0       
      +0       0       0       0       0       0       0       0       0       0       0       0       0       0       0
  3722 ;;Total ram usage:        2 bytes
  3723 ;; Hardware stack levels used: 1
  3724 ;; This function calls:
  3725 ;;		Nothing
  3726 ;; This function is called by:
  3727 ;;		_UART
  3728 ;; This function uses a non-reentrant model
  3729 ;;
  3730                           
  3731  061B                     _LED_Setred:	
  3732                           ;psect for function _LED_Setred
  3733                           
  3734                           
  3735                           ;incstack = 0
  3736                           ; Regs used in _LED_Setred: [wreg]
  3737                           ;LED_Setred@value stored from wreg
  3738  061B  00F1               	movwf	LED_Setred@value
  3739  061C                     l1208:
  3740                           
  3741                           ;Led.c: 23:     red = value;
  3742  061C  0871               	movf	LED_Setred@value,w
  3743  061D  00F0               	movwf	??_LED_Setred
  3744  061E  0870               	movf	??_LED_Setred,w
  3745  061F  0020               	movlb	0	; select bank0
  3746  0620  00BD               	movwf	_red@Led$F449
  3747  0621                     l265:
  3748  0621  0008               	return
  3749  0622                     __end_of_LED_Setred:
  3750                           
  3751                           	psect	text5
  3752  0614                     __ptext5:	
  3753 ;; *************** function _LED_Setgreen *****************
  3754 ;; Defined at:
  3755 ;;		line 17 in file "Led.c"
  3756 ;; Parameters:    Size  Location     Type
  3757 ;;  value           1    wreg     unsigned char 
  3758 ;; Auto vars:     Size  Location     Type
  3759 ;;  value           1    1[COMMON] unsigned char 
  3760 ;; Return value:  Size  Location     Type
  3761 ;;                  1    wreg      void 
  3762 ;; Registers used:
  3763 ;;		wreg
  3764 ;; Tracked objects:
  3765 ;;		On entry : 0/0
  3766 ;;		On exit  : 0/0
  3767 ;;		Unchanged: 0/0
  3768 ;; Data sizes:     COMMON   BANK0   BANK1   BANK2   BANK3   BANK4   BANK5   BANK6   BANK7   BANK8   BANK9  BANK10  BANK1
      +1  BANK12  BANK13  BANK14  BANK15  BANK16  BANK17  BANK18  BANK19  BANK20  BANK21  BANK22  BANK23  BANK24  BANK25
  3769 ;;      Params:         0       0       0       0       0       0       0       0       0       0       0       0       
      +0       0       0       0       0       0       0       0       0       0       0       0       0       0       0
  3770 ;;      Locals:         1       0       0       0       0       0       0       0       0       0       0       0       
      +0       0       0       0       0       0       0       0       0       0       0       0       0       0       0
  3771 ;;      Temps:          1       0       0       0       0       0       0       0       0       0       0       0       
      +0       0       0       0       0       0       0       0       0       0       0       0       0       0       0
  3772 ;;      Totals:         2       0       0       0       0       0       0       0       0       0       0       0       
      +0       0       0       0       0       0       0       0       0       0       0       0       0       0       0
  3773 ;;Total ram usage:        2 bytes
  3774 ;; Hardware stack levels used: 1
  3775 ;; This function calls:
  3776 ;;		Nothing
  3777 ;; This function is called by:
  3778 ;;		_UART
  3779 ;; This function uses a non-reentrant model
  3780 ;;
  3781                           
  3782  0614                     _LED_Setgreen:	
  3783                           ;psect for function _LED_Setgreen
  3784                           
  3785                           
  3786                           ;incstack = 0
  3787                           ; Regs used in _LED_Setgreen: [wreg]
  3788                           ;LED_Setgreen@value stored from wreg
  3789  0614  00F1               	movwf	LED_Setgreen@value
  3790  0615                     l1206:
  3791                           
  3792                           ;Led.c: 19:     green = value;
  3793  0615  0871               	movf	LED_Setgreen@value,w
  3794  0616  00F0               	movwf	??_LED_Setgreen
  3795  0617  0870               	movf	??_LED_Setgreen,w
  3796  0618  0020               	movlb	0	; select bank0
  3797  0619  00BE               	movwf	_green@Led$F448
  3798  061A                     l262:
  3799  061A  0008               	return
  3800  061B                     __end_of_LED_Setgreen:
  3801                           
  3802                           	psect	text6
  3803  0601                     __ptext6:	
  3804 ;; *************** function _LED_Setblue *****************
  3805 ;; Defined at:
  3806 ;;		line 13 in file "Led.c"
  3807 ;; Parameters:    Size  Location     Type
  3808 ;;  value           1    wreg     unsigned char 
  3809 ;; Auto vars:     Size  Location     Type
  3810 ;;  value           1    1[COMMON] unsigned char 
  3811 ;; Return value:  Size  Location     Type
  3812 ;;                  1    wreg      void 
  3813 ;; Registers used:
  3814 ;;		wreg
  3815 ;; Tracked objects:
  3816 ;;		On entry : 0/0
  3817 ;;		On exit  : 0/0
  3818 ;;		Unchanged: 0/0
  3819 ;; Data sizes:     COMMON   BANK0   BANK1   BANK2   BANK3   BANK4   BANK5   BANK6   BANK7   BANK8   BANK9  BANK10  BANK1
      +1  BANK12  BANK13  BANK14  BANK15  BANK16  BANK17  BANK18  BANK19  BANK20  BANK21  BANK22  BANK23  BANK24  BANK25
  3820 ;;      Params:         0       0       0       0       0       0       0       0       0       0       0       0       
      +0       0       0       0       0       0       0       0       0       0       0       0       0       0       0
  3821 ;;      Locals:         1       0       0       0       0       0       0       0       0       0       0       0       
      +0       0       0       0       0       0       0       0       0       0       0       0       0       0       0
  3822 ;;      Temps:          1       0       0       0       0       0       0       0       0       0       0       0       
      +0       0       0       0       0       0       0       0       0       0       0       0       0       0       0
  3823 ;;      Totals:         2       0       0       0       0       0       0       0       0       0       0       0       
      +0       0       0       0       0       0       0       0       0       0       0       0       0       0       0
  3824 ;;Total ram usage:        2 bytes
  3825 ;; Hardware stack levels used: 1
  3826 ;; This function calls:
  3827 ;;		Nothing
  3828 ;; This function is called by:
  3829 ;;		_UART
  3830 ;; This function uses a non-reentrant model
  3831 ;;
  3832                           
  3833  0601                     _LED_Setblue:	
  3834                           ;psect for function _LED_Setblue
  3835                           
  3836                           
  3837                           ;incstack = 0
  3838                           ; Regs used in _LED_Setblue: [wreg]
  3839                           ;LED_Setblue@value stored from wreg
  3840  0601  00F1               	movwf	LED_Setblue@value
  3841  0602                     l1204:
  3842                           
  3843                           ;Led.c: 15:     blue = value;
  3844  0602  0871               	movf	LED_Setblue@value,w
  3845  0603  00F0               	movwf	??_LED_Setblue
  3846  0604  0870               	movf	??_LED_Setblue,w
  3847  0605  00FD               	movwf	_blue@Led$F447
  3848  0606                     l259:
  3849  0606  0008               	return
  3850  0607                     __end_of_LED_Setblue:
  3851                           
  3852                           	psect	text7
  3853  060D                     __ptext7:	
  3854 ;; *************** function _LED_SetSetpoint *****************
  3855 ;; Defined at:
  3856 ;;		line 9 in file "Led.c"
  3857 ;; Parameters:    Size  Location     Type
  3858 ;;  value           1    wreg     unsigned char 
  3859 ;; Auto vars:     Size  Location     Type
  3860 ;;  value           1    1[COMMON] unsigned char 
  3861 ;; Return value:  Size  Location     Type
  3862 ;;                  1    wreg      void 
  3863 ;; Registers used:
  3864 ;;		wreg
  3865 ;; Tracked objects:
  3866 ;;		On entry : 0/0
  3867 ;;		On exit  : 0/0
  3868 ;;		Unchanged: 0/0
  3869 ;; Data sizes:     COMMON   BANK0   BANK1   BANK2   BANK3   BANK4   BANK5   BANK6   BANK7   BANK8   BANK9  BANK10  BANK1
      +1  BANK12  BANK13  BANK14  BANK15  BANK16  BANK17  BANK18  BANK19  BANK20  BANK21  BANK22  BANK23  BANK24  BANK25
  3870 ;;      Params:         0       0       0       0       0       0       0       0       0       0       0       0       
      +0       0       0       0       0       0       0       0       0       0       0       0       0       0       0
  3871 ;;      Locals:         1       0       0       0       0       0       0       0       0       0       0       0       
      +0       0       0       0       0       0       0       0       0       0       0       0       0       0       0
  3872 ;;      Temps:          1       0       0       0       0       0       0       0       0       0       0       0       
      +0       0       0       0       0       0       0       0       0       0       0       0       0       0       0
  3873 ;;      Totals:         2       0       0       0       0       0       0       0       0       0       0       0       
      +0       0       0       0       0       0       0       0       0       0       0       0       0       0       0
  3874 ;;Total ram usage:        2 bytes
  3875 ;; Hardware stack levels used: 1
  3876 ;; This function calls:
  3877 ;;		Nothing
  3878 ;; This function is called by:
  3879 ;;		_UART
  3880 ;; This function uses a non-reentrant model
  3881 ;;
  3882                           
  3883  060D                     _LED_SetSetpoint:	
  3884                           ;psect for function _LED_SetSetpoint
  3885                           
  3886                           
  3887                           ;incstack = 0
  3888                           ; Regs used in _LED_SetSetpoint: [wreg]
  3889                           ;LED_SetSetpoint@value stored from wreg
  3890  060D  00F1               	movwf	LED_SetSetpoint@value
  3891  060E                     l1202:
  3892                           
  3893                           ;Led.c: 9: void LED_SetSetpoint(uint8_t value);Led.c: 10: {;Led.c: 11:     setpoint = va
      +                          lue;
  3894  060E  0871               	movf	LED_SetSetpoint@value,w
  3895  060F  00F0               	movwf	??_LED_SetSetpoint
  3896  0610  0870               	movf	??_LED_SetSetpoint,w
  3897  0611  0020               	movlb	0	; select bank0
  3898  0612  00B3               	movwf	_setpoint@Led$F450
  3899  0613                     l256:
  3900  0613  0008               	return
  3901  0614                     __end_of_LED_SetSetpoint:
  3902                           
  3903                           	psect	text8
  3904  0640                     __ptext8:	
  3905 ;; *************** function _EUSART_Read *****************
  3906 ;; Defined at:
  3907 ;;		line 77 in file "mcc_generated_files/eusart.c"
  3908 ;; Parameters:    Size  Location     Type
  3909 ;;		None
  3910 ;; Auto vars:     Size  Location     Type
  3911 ;;		None
  3912 ;; Return value:  Size  Location     Type
  3913 ;;                  1    wreg      unsigned char 
  3914 ;; Registers used:
  3915 ;;		wreg
  3916 ;; Tracked objects:
  3917 ;;		On entry : 0/0
  3918 ;;		On exit  : 0/0
  3919 ;;		Unchanged: 0/0
  3920 ;; Data sizes:     COMMON   BANK0   BANK1   BANK2   BANK3   BANK4   BANK5   BANK6   BANK7   BANK8   BANK9  BANK10  BANK1
      +1  BANK12  BANK13  BANK14  BANK15  BANK16  BANK17  BANK18  BANK19  BANK20  BANK21  BANK22  BANK23  BANK24  BANK25
  3921 ;;      Params:         0       0       0       0       0       0       0       0       0       0       0       0       
      +0       0       0       0       0       0       0       0       0       0       0       0       0       0       0
  3922 ;;      Locals:         0       0       0       0       0       0       0       0       0       0       0       0       
      +0       0       0       0       0       0       0       0       0       0       0       0       0       0       0
  3923 ;;      Temps:          0       0       0       0       0       0       0       0       0       0       0       0       
      +0       0       0       0       0       0       0       0       0       0       0       0       0       0       0
  3924 ;;      Totals:         0       0       0       0       0       0       0       0       0       0       0       0       
      +0       0       0       0       0       0       0       0       0       0       0       0       0       0       0
  3925 ;;Total ram usage:        0 bytes
  3926 ;; Hardware stack levels used: 1
  3927 ;; This function calls:
  3928 ;;		Nothing
  3929 ;; This function is called by:
  3930 ;;		_UART
  3931 ;;		_getch
  3932 ;; This function uses a non-reentrant model
  3933 ;;
  3934                           
  3935  0640                     _EUSART_Read:	
  3936                           ;psect for function _EUSART_Read
  3937                           
  3938  0640                     l1184:	
  3939                           ;incstack = 0
  3940                           ; Regs used in _EUSART_Read: [wreg]
  3941                           
  3942  0640                     l219:	
  3943                           ;mcc_generated_files/eusart.c: 81:     {;mcc_generated_files/eusart.c: 82:     }
  3944                           
  3945                           
  3946                           ;mcc_generated_files/eusart.c: 80:     while(!PIR1bits.RCIF)
  3947  0640  0020               	movlb	0	; select bank0
  3948  0641  1E91               	btfss	17,5	;volatile
  3949  0642  2E44               	goto	u241
  3950  0643  2E45               	goto	u240
  3951  0644                     u241:
  3952  0644  2E40               	goto	l219
  3953  0645                     u240:
  3954  0645                     l221:
  3955                           
  3956                           ;mcc_generated_files/eusart.c: 85:     if(1 == RC1STAbits.OERR)
  3957  0645  0023               	movlb	3	; select bank3
  3958  0646  1C9D               	btfss	29,1	;volatile
  3959  0647  2E49               	goto	u251
  3960  0648  2E4A               	goto	u250
  3961  0649                     u251:
  3962  0649  2E4C               	goto	l1188
  3963  064A                     u250:
  3964  064A                     l1186:
  3965                           
  3966                           ;mcc_generated_files/eusart.c: 86:     {;mcc_generated_files/eusart.c: 89:         RC1ST
      +                          Abits.CREN = 0;
  3967  064A  121D               	bcf	29,4	;volatile
  3968                           
  3969                           ;mcc_generated_files/eusart.c: 90:         RC1STAbits.CREN = 1;
  3970  064B  161D               	bsf	29,4	;volatile
  3971  064C                     l1188:
  3972                           
  3973                           ;mcc_generated_files/eusart.c: 93:     return RC1REG;
  3974  064C  0819               	movf	25,w	;volatile
  3975  064D                     l223:
  3976  064D  0008               	return
  3977  064E                     __end_of_EUSART_Read:
  3978                           
  3979                           	psect	text9
  3980  064E                     __ptext9:	
  3981 ;; *************** function _SYSTEM_Initialize *****************
  3982 ;; Defined at:
  3983 ;;		line 76 in file "mcc_generated_files/mcc.c"
  3984 ;; Parameters:    Size  Location     Type
  3985 ;;		None
  3986 ;; Auto vars:     Size  Location     Type
  3987 ;;		None
  3988 ;; Return value:  Size  Location     Type
  3989 ;;                  1    wreg      void 
  3990 ;; Registers used:
  3991 ;;		wreg, status,2, status,0, pclath, cstack
  3992 ;; Tracked objects:
  3993 ;;		On entry : 0/0
  3994 ;;		On exit  : 0/0
  3995 ;;		Unchanged: 0/0
  3996 ;; Data sizes:     COMMON   BANK0   BANK1   BANK2   BANK3   BANK4   BANK5   BANK6   BANK7   BANK8   BANK9  BANK10  BANK1
      +1  BANK12  BANK13  BANK14  BANK15  BANK16  BANK17  BANK18  BANK19  BANK20  BANK21  BANK22  BANK23  BANK24  BANK25
  3997 ;;      Params:         0       0       0       0       0       0       0       0       0       0       0       0       
      +0       0       0       0       0       0       0       0       0       0       0       0       0       0       0
  3998 ;;      Locals:         0       0       0       0       0       0       0       0       0       0       0       0       
      +0       0       0       0       0       0       0       0       0       0       0       0       0       0       0
  3999 ;;      Temps:          0       0       0       0       0       0       0       0       0       0       0       0       
      +0       0       0       0       0       0       0       0       0       0       0       0       0       0       0
  4000 ;;      Totals:         0       0       0       0       0       0       0       0       0       0       0       0       
      +0       0       0       0       0       0       0       0       0       0       0       0       0       0       0
  4001 ;;Total ram usage:        0 bytes
  4002 ;; Hardware stack levels used: 1
  4003 ;; Hardware stack levels required when called: 1
  4004 ;; This function calls:
  4005 ;;		_EUSART_Initialize
  4006 ;;		_OSCILLATOR_Initialize
  4007 ;;		_PIN_MANAGER_Initialize
  4008 ;;		_SPI1_Initialize
  4009 ;;		_WDT_Initialize
  4010 ;; This function is called by:
  4011 ;;		_main
  4012 ;; This function uses a non-reentrant model
  4013 ;;
  4014                           
  4015  064E                     _SYSTEM_Initialize:	
  4016                           ;psect for function _SYSTEM_Initialize
  4017                           
  4018  064E                     l1030:	
  4019                           ;incstack = 0
  4020                           ; Regs used in _SYSTEM_Initialize: [wreg+status,2+status,0+pclath+cstack]
  4021                           
  4022                           
  4023                           ;mcc_generated_files/mcc.c: 79:     PIN_MANAGER_Initialize();
  4024  064E  3187  2719  3186   	fcall	_PIN_MANAGER_Initialize
  4025                           
  4026                           ;mcc_generated_files/mcc.c: 80:     OSCILLATOR_Initialize();
  4027  0651  3186  2622  3186   	fcall	_OSCILLATOR_Initialize
  4028                           
  4029                           ;mcc_generated_files/mcc.c: 81:     WDT_Initialize();
  4030  0654  3185  25F7  3186   	fcall	_WDT_Initialize
  4031                           
  4032                           ;mcc_generated_files/mcc.c: 82:     SPI1_Initialize();
  4033  0657  3185  25FB  3186   	fcall	_SPI1_Initialize
  4034                           
  4035                           ;mcc_generated_files/mcc.c: 83:     EUSART_Initialize();
  4036  065A  3186  2635  3186   	fcall	_EUSART_Initialize
  4037  065D                     l25:
  4038  065D  0008               	return
  4039  065E                     __end_of_SYSTEM_Initialize:
  4040                           
  4041                           	psect	text10
  4042  05F7                     __ptext10:	
  4043 ;; *************** function _WDT_Initialize *****************
  4044 ;; Defined at:
  4045 ;;		line 102 in file "mcc_generated_files/mcc.c"
  4046 ;; Parameters:    Size  Location     Type
  4047 ;;		None
  4048 ;; Auto vars:     Size  Location     Type
  4049 ;;		None
  4050 ;; Return value:  Size  Location     Type
  4051 ;;                  1    wreg      void 
  4052 ;; Registers used:
  4053 ;;		wreg
  4054 ;; Tracked objects:
  4055 ;;		On entry : 0/0
  4056 ;;		On exit  : 0/0
  4057 ;;		Unchanged: 0/0
  4058 ;; Data sizes:     COMMON   BANK0   BANK1   BANK2   BANK3   BANK4   BANK5   BANK6   BANK7   BANK8   BANK9  BANK10  BANK1
      +1  BANK12  BANK13  BANK14  BANK15  BANK16  BANK17  BANK18  BANK19  BANK20  BANK21  BANK22  BANK23  BANK24  BANK25
  4059 ;;      Params:         0       0       0       0       0       0       0       0       0       0       0       0       
      +0       0       0       0       0       0       0       0       0       0       0       0       0       0       0
  4060 ;;      Locals:         0       0       0       0       0       0       0       0       0       0       0       0       
      +0       0       0       0       0       0       0       0       0       0       0       0       0       0       0
  4061 ;;      Temps:          0       0       0       0       0       0       0       0       0       0       0       0       
      +0       0       0       0       0       0       0       0       0       0       0       0       0       0       0
  4062 ;;      Totals:         0       0       0       0       0       0       0       0       0       0       0       0       
      +0       0       0       0       0       0       0       0       0       0       0       0       0       0       0
  4063 ;;Total ram usage:        0 bytes
  4064 ;; Hardware stack levels used: 1
  4065 ;; This function calls:
  4066 ;;		Nothing
  4067 ;; This function is called by:
  4068 ;;		_SYSTEM_Initialize
  4069 ;; This function uses a non-reentrant model
  4070 ;;
  4071                           
  4072  05F7                     _WDT_Initialize:	
  4073                           ;psect for function _WDT_Initialize
  4074                           
  4075  05F7                     l966:	
  4076                           ;incstack = 0
  4077                           ; Regs used in _WDT_Initialize: [wreg]
  4078                           
  4079                           
  4080                           ;mcc_generated_files/mcc.c: 105:     WDTCON = 0x20;
  4081  05F7  3020               	movlw	32
  4082  05F8  0021               	movlb	1	; select bank1
  4083  05F9  0097               	movwf	23	;volatile
  4084  05FA                     l31:
  4085  05FA  0008               	return
  4086  05FB                     __end_of_WDT_Initialize:
  4087                           
  4088                           	psect	text11
  4089  05FB                     __ptext11:	
  4090 ;; *************** function _SPI1_Initialize *****************
  4091 ;; Defined at:
  4092 ;;		line 63 in file "mcc_generated_files/spi1.c"
  4093 ;; Parameters:    Size  Location     Type
  4094 ;;		None
  4095 ;; Auto vars:     Size  Location     Type
  4096 ;;		None
  4097 ;; Return value:  Size  Location     Type
  4098 ;;                  1    wreg      void 
  4099 ;; Registers used:
  4100 ;;		wreg, status,2
  4101 ;; Tracked objects:
  4102 ;;		On entry : 0/0
  4103 ;;		On exit  : 0/0
  4104 ;;		Unchanged: 0/0
  4105 ;; Data sizes:     COMMON   BANK0   BANK1   BANK2   BANK3   BANK4   BANK5   BANK6   BANK7   BANK8   BANK9  BANK10  BANK1
      +1  BANK12  BANK13  BANK14  BANK15  BANK16  BANK17  BANK18  BANK19  BANK20  BANK21  BANK22  BANK23  BANK24  BANK25
  4106 ;;      Params:         0       0       0       0       0       0       0       0       0       0       0       0       
      +0       0       0       0       0       0       0       0       0       0       0       0       0       0       0
  4107 ;;      Locals:         0       0       0       0       0       0       0       0       0       0       0       0       
      +0       0       0       0       0       0       0       0       0       0       0       0       0       0       0
  4108 ;;      Temps:          0       0       0       0       0       0       0       0       0       0       0       0       
      +0       0       0       0       0       0       0       0       0       0       0       0       0       0       0
  4109 ;;      Totals:         0       0       0       0       0       0       0       0       0       0       0       0       
      +0       0       0       0       0       0       0       0       0       0       0       0       0       0       0
  4110 ;;Total ram usage:        0 bytes
  4111 ;; Hardware stack levels used: 1
  4112 ;; This function calls:
  4113 ;;		Nothing
  4114 ;; This function is called by:
  4115 ;;		_SYSTEM_Initialize
  4116 ;; This function uses a non-reentrant model
  4117 ;;
  4118                           
  4119  05FB                     _SPI1_Initialize:	
  4120                           ;psect for function _SPI1_Initialize
  4121                           
  4122  05FB                     l968:	
  4123                           ;incstack = 0
  4124                           ; Regs used in _SPI1_Initialize: [wreg+status,2]
  4125                           
  4126                           
  4127                           ;mcc_generated_files/spi1.c: 68:     SSP1STAT = 0x00;
  4128  05FB  0024               	movlb	4	; select bank4
  4129  05FC  0194               	clrf	20	;volatile
  4130  05FD                     l970:
  4131                           
  4132                           ;mcc_generated_files/spi1.c: 71:     SSP1CON1 = 0x20;
  4133  05FD  3020               	movlw	32
  4134  05FE  0095               	movwf	21	;volatile
  4135  05FF                     l972:
  4136                           
  4137                           ;mcc_generated_files/spi1.c: 74:     SSP1ADD = 0x00;
  4138  05FF  0192               	clrf	18	;volatile
  4139  0600                     l100:
  4140  0600  0008               	return
  4141  0601                     __end_of_SPI1_Initialize:
  4142                           
  4143                           	psect	text12
  4144  0719                     __ptext12:	
  4145 ;; *************** function _PIN_MANAGER_Initialize *****************
  4146 ;; Defined at:
  4147 ;;		line 51 in file "mcc_generated_files/pin_manager.c"
  4148 ;; Parameters:    Size  Location     Type
  4149 ;;		None
  4150 ;; Auto vars:     Size  Location     Type
  4151 ;;  state           1    0[COMMON] _Bool 
  4152 ;; Return value:  Size  Location     Type
  4153 ;;                  1    wreg      void 
  4154 ;; Registers used:
  4155 ;;		wreg, status,2, status,0
  4156 ;; Tracked objects:
  4157 ;;		On entry : 0/0
  4158 ;;		On exit  : 0/0
  4159 ;;		Unchanged: 0/0
  4160 ;; Data sizes:     COMMON   BANK0   BANK1   BANK2   BANK3   BANK4   BANK5   BANK6   BANK7   BANK8   BANK9  BANK10  BANK1
      +1  BANK12  BANK13  BANK14  BANK15  BANK16  BANK17  BANK18  BANK19  BANK20  BANK21  BANK22  BANK23  BANK24  BANK25
  4161 ;;      Params:         0       0       0       0       0       0       0       0       0       0       0       0       
      +0       0       0       0       0       0       0       0       0       0       0       0       0       0       0
  4162 ;;      Locals:         1       0       0       0       0       0       0       0       0       0       0       0       
      +0       0       0       0       0       0       0       0       0       0       0       0       0       0       0
  4163 ;;      Temps:          0       0       0       0       0       0       0       0       0       0       0       0       
      +0       0       0       0       0       0       0       0       0       0       0       0       0       0       0
  4164 ;;      Totals:         1       0       0       0       0       0       0       0       0       0       0       0       
      +0       0       0       0       0       0       0       0       0       0       0       0       0       0       0
  4165 ;;Total ram usage:        1 bytes
  4166 ;; Hardware stack levels used: 1
  4167 ;; This function calls:
  4168 ;;		Nothing
  4169 ;; This function is called by:
  4170 ;;		_SYSTEM_Initialize
  4171 ;; This function uses a non-reentrant model
  4172 ;;
  4173                           
  4174  0719                     _PIN_MANAGER_Initialize:	
  4175                           ;psect for function _PIN_MANAGER_Initialize
  4176                           
  4177  0719                     l924:	
  4178                           ;incstack = 0
  4179                           ; Regs used in _PIN_MANAGER_Initialize: [wreg+status,2+status,0]
  4180                           
  4181                           
  4182                           ;mcc_generated_files/pin_manager.c: 56:     LATA = 0x00;
  4183  0719  0022               	movlb	2	; select bank2
  4184  071A  018C               	clrf	12	;volatile
  4185                           
  4186                           ;mcc_generated_files/pin_manager.c: 57:     LATB = 0x00;
  4187  071B  018D               	clrf	13	;volatile
  4188                           
  4189                           ;mcc_generated_files/pin_manager.c: 58:     LATC = 0x00;
  4190  071C  018E               	clrf	14	;volatile
  4191  071D                     l926:
  4192                           
  4193                           ;mcc_generated_files/pin_manager.c: 63:     TRISA = 0x37;
  4194  071D  3037               	movlw	55
  4195  071E  0021               	movlb	1	; select bank1
  4196  071F  008C               	movwf	12	;volatile
  4197  0720                     l928:
  4198                           
  4199                           ;mcc_generated_files/pin_manager.c: 64:     TRISB = 0x20;
  4200  0720  3020               	movlw	32
  4201  0721  008D               	movwf	13	;volatile
  4202  0722                     l930:
  4203                           
  4204                           ;mcc_generated_files/pin_manager.c: 65:     TRISC = 0xFF;
  4205  0722  30FF               	movlw	255
  4206  0723  008E               	movwf	14	;volatile
  4207  0724                     l932:
  4208                           
  4209                           ;mcc_generated_files/pin_manager.c: 70:     ANSELC = 0xFF;
  4210  0724  30FF               	movlw	255
  4211  0725  0023               	movlb	3	; select bank3
  4212  0726  008E               	movwf	14	;volatile
  4213  0727                     l934:
  4214                           
  4215                           ;mcc_generated_files/pin_manager.c: 71:     ANSELB = 0x80;
  4216  0727  3080               	movlw	128
  4217  0728  008D               	movwf	13	;volatile
  4218  0729                     l936:
  4219                           
  4220                           ;mcc_generated_files/pin_manager.c: 72:     ANSELA = 0x36;
  4221  0729  3036               	movlw	54
  4222  072A  008C               	movwf	12	;volatile
  4223                           
  4224                           ;mcc_generated_files/pin_manager.c: 77:     WPUB = 0x00;
  4225  072B  0024               	movlb	4	; select bank4
  4226  072C  018D               	clrf	13	;volatile
  4227                           
  4228                           ;mcc_generated_files/pin_manager.c: 78:     WPUA = 0x00;
  4229  072D  018C               	clrf	12	;volatile
  4230                           
  4231                           ;mcc_generated_files/pin_manager.c: 79:     WPUC = 0x00;
  4232  072E  018E               	clrf	14	;volatile
  4233                           
  4234                           ;mcc_generated_files/pin_manager.c: 84:     ODCONA = 0x00;
  4235  072F  0025               	movlb	5	; select bank5
  4236  0730  018C               	clrf	12	;volatile
  4237                           
  4238                           ;mcc_generated_files/pin_manager.c: 85:     ODCONB = 0x00;
  4239  0731  018D               	clrf	13	;volatile
  4240                           
  4241                           ;mcc_generated_files/pin_manager.c: 86:     ODCONC = 0x00;
  4242  0732  018E               	clrf	14	;volatile
  4243  0733                     l938:
  4244                           
  4245                           ;mcc_generated_files/pin_manager.c: 93:     _Bool state = GIE;
  4246  0733  3000               	movlw	0
  4247  0734  1B8B               	btfsc	11,7	;volatile
  4248  0735  3001               	movlw	1
  4249  0736  00F0               	movwf	PIN_MANAGER_Initialize@state
  4250  0737                     l940:
  4251                           
  4252                           ;mcc_generated_files/pin_manager.c: 94:     GIE = 0;
  4253  0737  138B               	bcf	11,7	;volatile
  4254                           
  4255                           ;mcc_generated_files/pin_manager.c: 95:     PPSLOCK = 0x55;
  4256  0738  3055               	movlw	85
  4257  0739  003C               	movlb	28	; select bank28
  4258  073A  008F               	movwf	15	;volsfr
  4259                           
  4260                           ;mcc_generated_files/pin_manager.c: 96:     PPSLOCK = 0xAA;
  4261  073B  30AA               	movlw	170
  4262  073C  008F               	movwf	15	;volsfr
  4263  073D                     l942:
  4264                           
  4265                           ;mcc_generated_files/pin_manager.c: 97:     PPSLOCKbits.PPSLOCKED = 0x00;
  4266  073D  100F               	bcf	15,0	;volsfr
  4267  073E                     l944:
  4268                           
  4269                           ;mcc_generated_files/pin_manager.c: 99:     SSP1DATPPSbits.SSP1DATPPS = 0x00;
  4270  073E  30E0               	movlw	-32
  4271  073F  05A1               	andwf	33,f	;volatile
  4272  0740                     l946:
  4273                           
  4274                           ;mcc_generated_files/pin_manager.c: 100:     SSP1CLKPPSbits.SSP1CLKPPS = 0x0E;
  4275  0740  0820               	movf	32,w	;volatile
  4276  0741  39E0               	andlw	-32
  4277  0742  380E               	iorlw	14
  4278  0743  00A0               	movwf	32	;volatile
  4279  0744                     l948:
  4280                           
  4281                           ;mcc_generated_files/pin_manager.c: 101:     RXPPSbits.RXPPS = 0x0D;
  4282  0744  0824               	movf	36,w	;volatile
  4283  0745  39E0               	andlw	-32
  4284  0746  380D               	iorlw	13
  4285  0747  00A4               	movwf	36	;volatile
  4286  0748                     l950:
  4287                           
  4288                           ;mcc_generated_files/pin_manager.c: 102:     RB4PPSbits.RB4PPS = 0x19;
  4289  0748  003D               	movlb	29	; select bank29
  4290  0749  081C               	movf	28,w	;volatile
  4291  074A  39E0               	andlw	-32
  4292  074B  3819               	iorlw	25
  4293  074C  009C               	movwf	28	;volatile
  4294  074D                     l952:
  4295                           
  4296                           ;mcc_generated_files/pin_manager.c: 103:     RB7PPSbits.RB7PPS = 0x14;
  4297  074D  081F               	movf	31,w	;volatile
  4298  074E  39E0               	andlw	-32
  4299  074F  3814               	iorlw	20
  4300  0750  009F               	movwf	31	;volatile
  4301  0751                     l954:
  4302                           
  4303                           ;mcc_generated_files/pin_manager.c: 104:     RB6PPSbits.RB6PPS = 0x18;
  4304  0751  081E               	movf	30,w	;volatile
  4305  0752  39E0               	andlw	-32
  4306  0753  3818               	iorlw	24
  4307  0754  009E               	movwf	30	;volatile
  4308                           
  4309                           ;mcc_generated_files/pin_manager.c: 106:     PPSLOCK = 0x55;
  4310  0755  3055               	movlw	85
  4311  0756  003C               	movlb	28	; select bank28
  4312  0757  008F               	movwf	15	;volsfr
  4313                           
  4314                           ;mcc_generated_files/pin_manager.c: 107:     PPSLOCK = 0xAA;
  4315  0758  30AA               	movlw	170
  4316  0759  008F               	movwf	15	;volsfr
  4317  075A                     l956:
  4318                           
  4319                           ;mcc_generated_files/pin_manager.c: 108:     PPSLOCKbits.PPSLOCKED = 0x01;
  4320  075A  140F               	bsf	15,0	;volsfr
  4321  075B                     l958:
  4322                           
  4323                           ;mcc_generated_files/pin_manager.c: 110:     GIE = state;
  4324  075B  0C70               	rrf	PIN_MANAGER_Initialize@state,w
  4325  075C  1C03               	skipc
  4326  075D  138B               	bcf	11,7	;volatile
  4327  075E  1803               	skipnc
  4328  075F  178B               	bsf	11,7	;volatile
  4329  0760                     l82:
  4330  0760  0008               	return
  4331  0761                     __end_of_PIN_MANAGER_Initialize:
  4332                           
  4333                           	psect	text13
  4334  0622                     __ptext13:	
  4335 ;; *************** function _OSCILLATOR_Initialize *****************
  4336 ;; Defined at:
  4337 ;;		line 86 in file "mcc_generated_files/mcc.c"
  4338 ;; Parameters:    Size  Location     Type
  4339 ;;		None
  4340 ;; Auto vars:     Size  Location     Type
  4341 ;;		None
  4342 ;; Return value:  Size  Location     Type
  4343 ;;                  1    wreg      void 
  4344 ;; Registers used:
  4345 ;;		wreg, status,2
  4346 ;; Tracked objects:
  4347 ;;		On entry : 0/0
  4348 ;;		On exit  : 0/0
  4349 ;;		Unchanged: 0/0
  4350 ;; Data sizes:     COMMON   BANK0   BANK1   BANK2   BANK3   BANK4   BANK5   BANK6   BANK7   BANK8   BANK9  BANK10  BANK1
      +1  BANK12  BANK13  BANK14  BANK15  BANK16  BANK17  BANK18  BANK19  BANK20  BANK21  BANK22  BANK23  BANK24  BANK25
  4351 ;;      Params:         0       0       0       0       0       0       0       0       0       0       0       0       
      +0       0       0       0       0       0       0       0       0       0       0       0       0       0       0
  4352 ;;      Locals:         0       0       0       0       0       0       0       0       0       0       0       0       
      +0       0       0       0       0       0       0       0       0       0       0       0       0       0       0
  4353 ;;      Temps:          0       0       0       0       0       0       0       0       0       0       0       0       
      +0       0       0       0       0       0       0       0       0       0       0       0       0       0       0
  4354 ;;      Totals:         0       0       0       0       0       0       0       0       0       0       0       0       
      +0       0       0       0       0       0       0       0       0       0       0       0       0       0       0
  4355 ;;Total ram usage:        0 bytes
  4356 ;; Hardware stack levels used: 1
  4357 ;; This function calls:
  4358 ;;		Nothing
  4359 ;; This function is called by:
  4360 ;;		_SYSTEM_Initialize
  4361 ;; This function uses a non-reentrant model
  4362 ;;
  4363                           
  4364  0622                     _OSCILLATOR_Initialize:	
  4365                           ;psect for function _OSCILLATOR_Initialize
  4366                           
  4367  0622                     l960:	
  4368                           ;incstack = 0
  4369                           ; Regs used in _OSCILLATOR_Initialize: [wreg+status,2]
  4370                           
  4371                           
  4372                           ;mcc_generated_files/mcc.c: 89:     OSCCON1 = 0x00;
  4373  0622  0032               	movlb	18	; select bank18
  4374  0623  0199               	clrf	25	;volatile
  4375                           
  4376                           ;mcc_generated_files/mcc.c: 91:     OSCCON3 = 0x00;
  4377  0624  019B               	clrf	27	;volatile
  4378                           
  4379                           ;mcc_generated_files/mcc.c: 93:     OSCEN = 0x00;
  4380  0625  019D               	clrf	29	;volatile
  4381  0626                     l962:
  4382                           
  4383                           ;mcc_generated_files/mcc.c: 95:     OSCFRQ = 0x06;
  4384  0626  3006               	movlw	6
  4385  0627  009F               	movwf	31	;volatile
  4386  0628                     l964:
  4387                           
  4388                           ;mcc_generated_files/mcc.c: 97:     OSCTUNE = 0x00;
  4389  0628  019E               	clrf	30	;volatile
  4390  0629                     l28:
  4391  0629  0008               	return
  4392  062A                     __end_of_OSCILLATOR_Initialize:
  4393                           
  4394                           	psect	text14
  4395  0635                     __ptext14:	
  4396 ;; *************** function _EUSART_Initialize *****************
  4397 ;; Defined at:
  4398 ;;		line 55 in file "mcc_generated_files/eusart.c"
  4399 ;; Parameters:    Size  Location     Type
  4400 ;;		None
  4401 ;; Auto vars:     Size  Location     Type
  4402 ;;		None
  4403 ;; Return value:  Size  Location     Type
  4404 ;;                  1    wreg      void 
  4405 ;; Registers used:
  4406 ;;		wreg, status,2
  4407 ;; Tracked objects:
  4408 ;;		On entry : 0/0
  4409 ;;		On exit  : 0/0
  4410 ;;		Unchanged: 0/0
  4411 ;; Data sizes:     COMMON   BANK0   BANK1   BANK2   BANK3   BANK4   BANK5   BANK6   BANK7   BANK8   BANK9  BANK10  BANK1
      +1  BANK12  BANK13  BANK14  BANK15  BANK16  BANK17  BANK18  BANK19  BANK20  BANK21  BANK22  BANK23  BANK24  BANK25
  4412 ;;      Params:         0       0       0       0       0       0       0       0       0       0       0       0       
      +0       0       0       0       0       0       0       0       0       0       0       0       0       0       0
  4413 ;;      Locals:         0       0       0       0       0       0       0       0       0       0       0       0       
      +0       0       0       0       0       0       0       0       0       0       0       0       0       0       0
  4414 ;;      Temps:          0       0       0       0       0       0       0       0       0       0       0       0       
      +0       0       0       0       0       0       0       0       0       0       0       0       0       0       0
  4415 ;;      Totals:         0       0       0       0       0       0       0       0       0       0       0       0       
      +0       0       0       0       0       0       0       0       0       0       0       0       0       0       0
  4416 ;;Total ram usage:        0 bytes
  4417 ;; Hardware stack levels used: 1
  4418 ;; This function calls:
  4419 ;;		Nothing
  4420 ;; This function is called by:
  4421 ;;		_SYSTEM_Initialize
  4422 ;; This function uses a non-reentrant model
  4423 ;;
  4424                           
  4425  0635                     _EUSART_Initialize:	
  4426                           ;psect for function _EUSART_Initialize
  4427                           
  4428  0635                     l974:	
  4429                           ;incstack = 0
  4430                           ; Regs used in _EUSART_Initialize: [wreg+status,2]
  4431                           
  4432                           
  4433                           ;mcc_generated_files/eusart.c: 60:     BAUD1CON = 0x09;
  4434  0635  3009               	movlw	9
  4435  0636  0023               	movlb	3	; select bank3
  4436  0637  009F               	movwf	31	;volatile
  4437                           
  4438                           ;mcc_generated_files/eusart.c: 63:     RC1STA = 0x90;
  4439  0638  3090               	movlw	144
  4440  0639  009D               	movwf	29	;volatile
  4441                           
  4442                           ;mcc_generated_files/eusart.c: 66:     TX1STA = 0x24;
  4443  063A  3024               	movlw	36
  4444  063B  009E               	movwf	30	;volatile
  4445                           
  4446                           ;mcc_generated_files/eusart.c: 69:     SP1BRGL = 0x44;
  4447  063C  3044               	movlw	68
  4448  063D  009B               	movwf	27	;volatile
  4449  063E                     l976:
  4450                           
  4451                           ;mcc_generated_files/eusart.c: 72:     SP1BRGH = 0x00;
  4452  063E  019C               	clrf	28	;volatile
  4453  063F                     l216:
  4454  063F  0008               	return
  4455  0640                     __end_of_EUSART_Initialize:
  4456                           
  4457                           	psect	text15
  4458  06E8                     __ptext15:	
  4459 ;; *************** function _LED *****************
  4460 ;; Defined at:
  4461 ;;		line 26 in file "Led.c"
  4462 ;; Parameters:    Size  Location     Type
  4463 ;;		None
  4464 ;; Auto vars:     Size  Location     Type
  4465 ;;  led             1    8[COMMON] unsigned char 
  4466 ;; Return value:  Size  Location     Type
  4467 ;;                  1    wreg      void 
  4468 ;; Registers used:
  4469 ;;		wreg, status,2, status,0, pclath, cstack
  4470 ;; Tracked objects:
  4471 ;;		On entry : 0/0
  4472 ;;		On exit  : 0/0
  4473 ;;		Unchanged: 0/0
  4474 ;; Data sizes:     COMMON   BANK0   BANK1   BANK2   BANK3   BANK4   BANK5   BANK6   BANK7   BANK8   BANK9  BANK10  BANK1
      +1  BANK12  BANK13  BANK14  BANK15  BANK16  BANK17  BANK18  BANK19  BANK20  BANK21  BANK22  BANK23  BANK24  BANK25
  4475 ;;      Params:         0       0       0       0       0       0       0       0       0       0       0       0       
      +0       0       0       0       0       0       0       0       0       0       0       0       0       0       0
  4476 ;;      Locals:         1       0       0       0       0       0       0       0       0       0       0       0       
      +0       0       0       0       0       0       0       0       0       0       0       0       0       0       0
  4477 ;;      Temps:          3       0       0       0       0       0       0       0       0       0       0       0       
      +0       0       0       0       0       0       0       0       0       0       0       0       0       0       0
  4478 ;;      Totals:         4       0       0       0       0       0       0       0       0       0       0       0       
      +0       0       0       0       0       0       0       0       0       0       0       0       0       0       0
  4479 ;;Total ram usage:        4 bytes
  4480 ;; Hardware stack levels used: 1
  4481 ;; Hardware stack levels required when called: 2
  4482 ;; This function calls:
  4483 ;;		_Send_LED_EndFrame
  4484 ;;		_Send_LED_Frame
  4485 ;;		_Send_LED_StartFrame
  4486 ;; This function is called by:
  4487 ;;		_main
  4488 ;; This function uses a non-reentrant model
  4489 ;;
  4490                           
  4491  06E8                     _LED:	
  4492                           ;psect for function _LED
  4493                           
  4494  06E8                     l1236:	
  4495                           ;incstack = 0
  4496                           ; Regs used in _LED: [wreg+status,2+status,0+pclath+cstack]
  4497                           
  4498                           
  4499                           ;Led.c: 28:     Send_LED_StartFrame();
  4500  06E8  3186  26A0  3186   	fcall	_Send_LED_StartFrame
  4501  06EB                     l1238:
  4502                           
  4503                           ;Led.c: 29:     for (char led = 0; led < NumberOfLEDs; led++) {
  4504  06EB  01F8               	clrf	LED@led
  4505  06EC                     l1244:
  4506                           
  4507                           ;Led.c: 30:         if (led == setpoint) {
  4508  06EC  0878               	movf	LED@led,w
  4509  06ED  0020               	movlb	0	; select bank0
  4510  06EE  0633               	xorwf	_setpoint@Led$F450,w
  4511  06EF  1D03               	skipz
  4512  06F0  2EF2               	goto	u291
  4513  06F1  2EF3               	goto	u290
  4514  06F2                     u291:
  4515  06F2  2F04               	goto	l1248
  4516  06F3                     u290:
  4517  06F3                     l1246:
  4518                           
  4519                           ;Led.c: 31:             Send_LED_Frame(0x1F, blue, green , red);
  4520  06F3  087D               	movf	_blue@Led$F447,w
  4521  06F4  00F5               	movwf	??_LED
  4522  06F5  0875               	movf	??_LED,w
  4523  06F6  00F1               	movwf	Send_LED_Frame@blue
  4524  06F7  083E               	movf	_green@Led$F448,w
  4525  06F8  00F6               	movwf	??_LED+1
  4526  06F9  0876               	movf	??_LED+1,w
  4527  06FA  00F2               	movwf	Send_LED_Frame@green
  4528  06FB  083D               	movf	_red@Led$F449,w
  4529  06FC  00F7               	movwf	??_LED+2
  4530  06FD  0877               	movf	??_LED+2,w
  4531  06FE  00F3               	movwf	Send_LED_Frame@red
  4532  06FF  301F               	movlw	31
  4533  0700  3186  265E  3186   	fcall	_Send_LED_Frame
  4534                           
  4535                           ;Led.c: 32:         } else {
  4536  0703  2F0B               	goto	l1250
  4537  0704                     l1248:
  4538                           
  4539                           ;Led.c: 33:             Send_LED_Frame(0x00, 0x00, 0x00, 0x00);
  4540  0704  01F1               	clrf	Send_LED_Frame@blue
  4541  0705  01F2               	clrf	Send_LED_Frame@green
  4542  0706  01F3               	clrf	Send_LED_Frame@red
  4543  0707  3000               	movlw	0
  4544  0708  3186  265E  3186   	fcall	_Send_LED_Frame
  4545  070B                     l1250:
  4546                           
  4547                           ;Led.c: 35:     }
  4548  070B  3001               	movlw	1
  4549  070C  00F5               	movwf	??_LED
  4550  070D  0875               	movf	??_LED,w
  4551  070E  07F8               	addwf	LED@led,f
  4552  070F                     l1252:
  4553  070F  303C               	movlw	60
  4554  0710  0278               	subwf	LED@led,w
  4555  0711  1C03               	skipc
  4556  0712  2F14               	goto	u301
  4557  0713  2F15               	goto	u300
  4558  0714                     u301:
  4559  0714  2EEC               	goto	l1244
  4560  0715                     u300:
  4561  0715                     l1254:
  4562                           
  4563                           ;Led.c: 38:     Send_LED_EndFrame();
  4564  0715  3186  2688  3186   	fcall	_Send_LED_EndFrame
  4565  0718                     l272:
  4566  0718  0008               	return
  4567  0719                     __end_of_LED:
  4568                           
  4569                           	psect	text16
  4570  06A0                     __ptext16:	
  4571 ;; *************** function _Send_LED_StartFrame *****************
  4572 ;; Defined at:
  4573 ;;		line 48 in file "Led.c"
  4574 ;; Parameters:    Size  Location     Type
  4575 ;;		None
  4576 ;; Auto vars:     Size  Location     Type
  4577 ;;  i               2    2[COMMON] int 
  4578 ;; Return value:  Size  Location     Type
  4579 ;;                  1    wreg      void 
  4580 ;; Registers used:
  4581 ;;		wreg, status,2, status,0, pclath, cstack
  4582 ;; Tracked objects:
  4583 ;;		On entry : 0/0
  4584 ;;		On exit  : 0/0
  4585 ;;		Unchanged: 0/0
  4586 ;; Data sizes:     COMMON   BANK0   BANK1   BANK2   BANK3   BANK4   BANK5   BANK6   BANK7   BANK8   BANK9  BANK10  BANK1
      +1  BANK12  BANK13  BANK14  BANK15  BANK16  BANK17  BANK18  BANK19  BANK20  BANK21  BANK22  BANK23  BANK24  BANK25
  4587 ;;      Params:         0       0       0       0       0       0       0       0       0       0       0       0       
      +0       0       0       0       0       0       0       0       0       0       0       0       0       0       0
  4588 ;;      Locals:         2       0       0       0       0       0       0       0       0       0       0       0       
      +0       0       0       0       0       0       0       0       0       0       0       0       0       0       0
  4589 ;;      Temps:          1       0       0       0       0       0       0       0       0       0       0       0       
      +0       0       0       0       0       0       0       0       0       0       0       0       0       0       0
  4590 ;;      Totals:         3       0       0       0       0       0       0       0       0       0       0       0       
      +0       0       0       0       0       0       0       0       0       0       0       0       0       0       0
  4591 ;;Total ram usage:        3 bytes
  4592 ;; Hardware stack levels used: 1
  4593 ;; Hardware stack levels required when called: 1
  4594 ;; This function calls:
  4595 ;;		_SPI1_Exchange8bit
  4596 ;; This function is called by:
  4597 ;;		_LED
  4598 ;; This function uses a non-reentrant model
  4599 ;;
  4600                           
  4601  06A0                     _Send_LED_StartFrame:	
  4602                           ;psect for function _Send_LED_StartFrame
  4603                           
  4604  06A0                     l1210:	
  4605                           ;incstack = 0
  4606                           ; Regs used in _Send_LED_StartFrame: [wreg+status,2+status,0+pclath+cstack]
  4607                           
  4608                           
  4609                           ;Led.c: 49:     for (int i = 0; i < 4; i++) {
  4610  06A0  01F2               	clrf	Send_LED_StartFrame@i
  4611  06A1  01F3               	clrf	Send_LED_StartFrame@i+1
  4612  06A2                     l1216:
  4613                           
  4614                           ;Led.c: 50:         SPI1_Exchange8bit(0x00);
  4615  06A2  3000               	movlw	0
  4616  06A3  3186  262A  3186   	fcall	_SPI1_Exchange8bit
  4617  06A6                     l1218:
  4618                           
  4619                           ;Led.c: 51:     }
  4620  06A6  3001               	movlw	1
  4621  06A7  07F2               	addwf	Send_LED_StartFrame@i,f
  4622  06A8  3000               	movlw	0
  4623  06A9  3DF3               	addwfc	Send_LED_StartFrame@i+1,f
  4624  06AA                     l1220:
  4625  06AA  0873               	movf	Send_LED_StartFrame@i+1,w
  4626  06AB  3A80               	xorlw	128
  4627  06AC  00F1               	movwf	??_Send_LED_StartFrame
  4628  06AD  3080               	movlw	128
  4629  06AE  0271               	subwf	??_Send_LED_StartFrame,w
  4630  06AF  1D03               	skipz
  4631  06B0  2EB3               	goto	u275
  4632  06B1  3004               	movlw	4
  4633  06B2  0272               	subwf	Send_LED_StartFrame@i,w
  4634  06B3                     u275:
  4635  06B3  1C03               	skipc
  4636  06B4  2EB6               	goto	u271
  4637  06B5  2EB7               	goto	u270
  4638  06B6                     u271:
  4639  06B6  2EA2               	goto	l1216
  4640  06B7                     u270:
  4641  06B7                     l280:
  4642  06B7  0008               	return
  4643  06B8                     __end_of_Send_LED_StartFrame:
  4644                           
  4645                           	psect	text17
  4646  065E                     __ptext17:	
  4647 ;; *************** function _Send_LED_Frame *****************
  4648 ;; Defined at:
  4649 ;;		line 41 in file "Led.c"
  4650 ;; Parameters:    Size  Location     Type
  4651 ;;  intensity       1    wreg     unsigned char 
  4652 ;;  blue            1    1[COMMON] unsigned char 
  4653 ;;  green           1    2[COMMON] unsigned char 
  4654 ;;  red             1    3[COMMON] unsigned char 
  4655 ;; Auto vars:     Size  Location     Type
  4656 ;;  intensity       1    4[COMMON] unsigned char 
  4657 ;; Return value:  Size  Location     Type
  4658 ;;                  1    wreg      void 
  4659 ;; Registers used:
  4660 ;;		wreg, status,2, status,0, pclath, cstack
  4661 ;; Tracked objects:
  4662 ;;		On entry : 0/0
  4663 ;;		On exit  : 0/0
  4664 ;;		Unchanged: 0/0
  4665 ;; Data sizes:     COMMON   BANK0   BANK1   BANK2   BANK3   BANK4   BANK5   BANK6   BANK7   BANK8   BANK9  BANK10  BANK1
      +1  BANK12  BANK13  BANK14  BANK15  BANK16  BANK17  BANK18  BANK19  BANK20  BANK21  BANK22  BANK23  BANK24  BANK25
  4666 ;;      Params:         3       0       0       0       0       0       0       0       0       0       0       0       
      +0       0       0       0       0       0       0       0       0       0       0       0       0       0       0
  4667 ;;      Locals:         1       0       0       0       0       0       0       0       0       0       0       0       
      +0       0       0       0       0       0       0       0       0       0       0       0       0       0       0
  4668 ;;      Temps:          0       0       0       0       0       0       0       0       0       0       0       0       
      +0       0       0       0       0       0       0       0       0       0       0       0       0       0       0
  4669 ;;      Totals:         4       0       0       0       0       0       0       0       0       0       0       0       
      +0       0       0       0       0       0       0       0       0       0       0       0       0       0       0
  4670 ;;Total ram usage:        4 bytes
  4671 ;; Hardware stack levels used: 1
  4672 ;; Hardware stack levels required when called: 1
  4673 ;; This function calls:
  4674 ;;		_SPI1_Exchange8bit
  4675 ;; This function is called by:
  4676 ;;		_LED
  4677 ;; This function uses a non-reentrant model
  4678 ;;
  4679                           
  4680  065E                     _Send_LED_Frame:	
  4681                           ;psect for function _Send_LED_Frame
  4682                           
  4683                           
  4684                           ;incstack = 0
  4685                           ; Regs used in _Send_LED_Frame: [wreg+status,2+status,0+pclath+cstack]
  4686                           ;Send_LED_Frame@intensity stored from wreg
  4687  065E  00F4               	movwf	Send_LED_Frame@intensity
  4688  065F                     l1222:
  4689                           
  4690                           ;Led.c: 42:     SPI1_Exchange8bit(0xE0 | intensity);
  4691  065F  0874               	movf	Send_LED_Frame@intensity,w
  4692  0660  38E0               	iorlw	224
  4693  0661  3186  262A  3186   	fcall	_SPI1_Exchange8bit
  4694                           
  4695                           ;Led.c: 43:     SPI1_Exchange8bit(blue);
  4696  0664  0871               	movf	Send_LED_Frame@blue,w
  4697  0665  3186  262A  3186   	fcall	_SPI1_Exchange8bit
  4698                           
  4699                           ;Led.c: 44:     SPI1_Exchange8bit(green);
  4700  0668  0872               	movf	Send_LED_Frame@green,w
  4701  0669  3186  262A  3186   	fcall	_SPI1_Exchange8bit
  4702                           
  4703                           ;Led.c: 45:     SPI1_Exchange8bit(red);
  4704  066C  0873               	movf	Send_LED_Frame@red,w
  4705  066D  3186  262A  3186   	fcall	_SPI1_Exchange8bit
  4706  0670                     l275:
  4707  0670  0008               	return
  4708  0671                     __end_of_Send_LED_Frame:
  4709                           
  4710                           	psect	text18
  4711  0688                     __ptext18:	
  4712 ;; *************** function _Send_LED_EndFrame *****************
  4713 ;; Defined at:
  4714 ;;		line 54 in file "Led.c"
  4715 ;; Parameters:    Size  Location     Type
  4716 ;;		None
  4717 ;; Auto vars:     Size  Location     Type
  4718 ;;  i               2    2[COMMON] int 
  4719 ;; Return value:  Size  Location     Type
  4720 ;;                  1    wreg      void 
  4721 ;; Registers used:
  4722 ;;		wreg, status,2, status,0, pclath, cstack
  4723 ;; Tracked objects:
  4724 ;;		On entry : 0/0
  4725 ;;		On exit  : 0/0
  4726 ;;		Unchanged: 0/0
  4727 ;; Data sizes:     COMMON   BANK0   BANK1   BANK2   BANK3   BANK4   BANK5   BANK6   BANK7   BANK8   BANK9  BANK10  BANK1
      +1  BANK12  BANK13  BANK14  BANK15  BANK16  BANK17  BANK18  BANK19  BANK20  BANK21  BANK22  BANK23  BANK24  BANK25
  4728 ;;      Params:         0       0       0       0       0       0       0       0       0       0       0       0       
      +0       0       0       0       0       0       0       0       0       0       0       0       0       0       0
  4729 ;;      Locals:         2       0       0       0       0       0       0       0       0       0       0       0       
      +0       0       0       0       0       0       0       0       0       0       0       0       0       0       0
  4730 ;;      Temps:          1       0       0       0       0       0       0       0       0       0       0       0       
      +0       0       0       0       0       0       0       0       0       0       0       0       0       0       0
  4731 ;;      Totals:         3       0       0       0       0       0       0       0       0       0       0       0       
      +0       0       0       0       0       0       0       0       0       0       0       0       0       0       0
  4732 ;;Total ram usage:        3 bytes
  4733 ;; Hardware stack levels used: 1
  4734 ;; Hardware stack levels required when called: 1
  4735 ;; This function calls:
  4736 ;;		_SPI1_Exchange8bit
  4737 ;; This function is called by:
  4738 ;;		_LED
  4739 ;; This function uses a non-reentrant model
  4740 ;;
  4741                           
  4742  0688                     _Send_LED_EndFrame:	
  4743                           ;psect for function _Send_LED_EndFrame
  4744                           
  4745  0688                     l1224:	
  4746                           ;incstack = 0
  4747                           ; Regs used in _Send_LED_EndFrame: [wreg+status,2+status,0+pclath+cstack]
  4748                           
  4749                           
  4750                           ;Led.c: 55:     for (int i = 0; i < 4; i++) {
  4751  0688  01F2               	clrf	Send_LED_EndFrame@i
  4752  0689  01F3               	clrf	Send_LED_EndFrame@i+1
  4753  068A                     l1230:
  4754                           
  4755                           ;Led.c: 56:         SPI1_Exchange8bit(0xFF);
  4756  068A  30FF               	movlw	255
  4757  068B  3186  262A  3186   	fcall	_SPI1_Exchange8bit
  4758  068E                     l1232:
  4759                           
  4760                           ;Led.c: 57:     }
  4761  068E  3001               	movlw	1
  4762  068F  07F2               	addwf	Send_LED_EndFrame@i,f
  4763  0690  3000               	movlw	0
  4764  0691  3DF3               	addwfc	Send_LED_EndFrame@i+1,f
  4765  0692                     l1234:
  4766  0692  0873               	movf	Send_LED_EndFrame@i+1,w
  4767  0693  3A80               	xorlw	128
  4768  0694  00F1               	movwf	??_Send_LED_EndFrame
  4769  0695  3080               	movlw	128
  4770  0696  0271               	subwf	??_Send_LED_EndFrame,w
  4771  0697  1D03               	skipz
  4772  0698  2E9B               	goto	u285
  4773  0699  3004               	movlw	4
  4774  069A  0272               	subwf	Send_LED_EndFrame@i,w
  4775  069B                     u285:
  4776  069B  1C03               	skipc
  4777  069C  2E9E               	goto	u281
  4778  069D  2E9F               	goto	u280
  4779  069E                     u281:
  4780  069E  2E8A               	goto	l1230
  4781  069F                     u280:
  4782  069F                     l285:
  4783  069F  0008               	return
  4784  06A0                     __end_of_Send_LED_EndFrame:
  4785                           
  4786                           	psect	text19
  4787  062A                     __ptext19:	
  4788 ;; *************** function _SPI1_Exchange8bit *****************
  4789 ;; Defined at:
  4790 ;;		line 77 in file "mcc_generated_files/spi1.c"
  4791 ;; Parameters:    Size  Location     Type
  4792 ;;  data            1    wreg     unsigned char 
  4793 ;; Auto vars:     Size  Location     Type
  4794 ;;  data            1    0[COMMON] unsigned char 
  4795 ;; Return value:  Size  Location     Type
  4796 ;;                  1    wreg      unsigned char 
  4797 ;; Registers used:
  4798 ;;		wreg
  4799 ;; Tracked objects:
  4800 ;;		On entry : 0/0
  4801 ;;		On exit  : 0/0
  4802 ;;		Unchanged: 0/0
  4803 ;; Data sizes:     COMMON   BANK0   BANK1   BANK2   BANK3   BANK4   BANK5   BANK6   BANK7   BANK8   BANK9  BANK10  BANK1
      +1  BANK12  BANK13  BANK14  BANK15  BANK16  BANK17  BANK18  BANK19  BANK20  BANK21  BANK22  BANK23  BANK24  BANK25
  4804 ;;      Params:         0       0       0       0       0       0       0       0       0       0       0       0       
      +0       0       0       0       0       0       0       0       0       0       0       0       0       0       0
  4805 ;;      Locals:         1       0       0       0       0       0       0       0       0       0       0       0       
      +0       0       0       0       0       0       0       0       0       0       0       0       0       0       0
  4806 ;;      Temps:          0       0       0       0       0       0       0       0       0       0       0       0       
      +0       0       0       0       0       0       0       0       0       0       0       0       0       0       0
  4807 ;;      Totals:         1       0       0       0       0       0       0       0       0       0       0       0       
      +0       0       0       0       0       0       0       0       0       0       0       0       0       0       0
  4808 ;;Total ram usage:        1 bytes
  4809 ;; Hardware stack levels used: 1
  4810 ;; This function calls:
  4811 ;;		Nothing
  4812 ;; This function is called by:
  4813 ;;		_Send_LED_Frame
  4814 ;;		_Send_LED_StartFrame
  4815 ;;		_Send_LED_EndFrame
  4816 ;;		_SPI1_Exchange8bitBuffer
  4817 ;; This function uses a non-reentrant model
  4818 ;;
  4819                           
  4820  062A                     _SPI1_Exchange8bit:	
  4821                           ;psect for function _SPI1_Exchange8bit
  4822                           
  4823                           
  4824                           ;incstack = 0
  4825                           ; Regs used in _SPI1_Exchange8bit: [wreg]
  4826                           ;SPI1_Exchange8bit@data stored from wreg
  4827  062A  00F0               	movwf	SPI1_Exchange8bit@data
  4828  062B                     l1172:
  4829                           
  4830                           ;mcc_generated_files/spi1.c: 77: uint8_t SPI1_Exchange8bit(uint8_t data);mcc_generated_f
      +                          iles/spi1.c: 78: {;mcc_generated_files/spi1.c: 80:     SSP1CON1bits.WCOL = 0;
  4831  062B  0024               	movlb	4	; select bank4
  4832  062C  1395               	bcf	21,7	;volatile
  4833  062D                     l1174:
  4834                           
  4835                           ;mcc_generated_files/spi1.c: 82:     SSP1BUF = data;
  4836  062D  0870               	movf	SPI1_Exchange8bit@data,w
  4837  062E  0091               	movwf	17	;volatile
  4838  062F                     l103:	
  4839                           ;mcc_generated_files/spi1.c: 85:     {;mcc_generated_files/spi1.c: 86:     }
  4840                           
  4841                           
  4842                           ;mcc_generated_files/spi1.c: 84:     while(SSP1STATbits.BF == 0x0)
  4843  062F  1C14               	btfss	20,0	;volatile
  4844  0630  2E32               	goto	u211
  4845  0631  2E33               	goto	u210
  4846  0632                     u211:
  4847  0632  2E2F               	goto	l103
  4848  0633                     u210:
  4849  0633                     l1176:
  4850                           
  4851                           ;mcc_generated_files/spi1.c: 88:     return (SSP1BUF);
  4852  0633  0811               	movf	17,w	;volatile
  4853  0634                     l106:
  4854  0634  0008               	return
  4855  0635                     __end_of_SPI1_Exchange8bit:
  4856  007E                     btemp	set	126	;btemp
  4857  007E                     wtemp0	set	126
  4858                           
  4859                           	psect	idloc
  4860                           
  4861                           ;Config register IDLOC0 @ 0x8000
  4862                           ;	unspecified, using default values
  4863  8000                     	org	32768
  4864  8000  3FFF               	dw	16383
  4865                           
  4866                           ;Config register IDLOC1 @ 0x8001
  4867                           ;	unspecified, using default values
  4868  8001                     	org	32769
  4869  8001  3FFF               	dw	16383
  4870                           
  4871                           ;Config register IDLOC2 @ 0x8002
  4872                           ;	unspecified, using default values
  4873  8002                     	org	32770
  4874  8002  3FFF               	dw	16383
  4875                           
  4876                           ;Config register IDLOC3 @ 0x8003
  4877                           ;	unspecified, using default values
  4878  8003                     	org	32771
  4879  8003  3FFF               	dw	16383
  4880                           
  4881                           	psect	config
  4882                           
  4883                           ;Config register CONFIG1 @ 0x8007
  4884                           ;	FEXTOSC External Oscillator mode Selection bits
  4885                           ;	FEXTOSC = OFF, Oscillator not enabled
  4886                           ;	Power-up default value for COSC bits
  4887                           ;	RSTOSC = HFINT32, HFINTOSC with 2x PLL (32MHz)
  4888                           ;	Clock Out Enable bit
  4889                           ;	CLKOUTEN = OFF, CLKOUT function is disabled; I/O or oscillator function on OSC2
  4890                           ;	Clock Switch Enable bit
  4891                           ;	CSWEN = ON, Writing to NOSC and NDIV is allowed
  4892                           ;	Fail-Safe Clock Monitor Enable
  4893                           ;	FCMEN = ON, Fail-Safe Clock Monitor is enabled
  4894  8007                     	org	32775
  4895  8007  3F8C               	dw	16268
  4896                           
  4897                           ;Config register CONFIG2 @ 0x8008
  4898                           ;	Master Clear Enable bit
  4899                           ;	MCLRE = ON, MCLR/VPP pin function is MCLR; Weak pull-up enabled
  4900                           ;	Power-up Timer Enable bit
  4901                           ;	PWRTE = OFF, PWRT disabled
  4902                           ;	Watchdog Timer Enable bits
  4903                           ;	WDTE = OFF, WDT disabled; SWDTEN is ignored
  4904                           ;	Low-power BOR enable bit
  4905                           ;	LPBOREN = OFF, ULPBOR disabled
  4906                           ;	Brown-out Reset Enable bits
  4907                           ;	BOREN = ON, Brown-out Reset enabled, SBOREN bit ignored
  4908                           ;	Brown-out Reset Voltage selection bit
  4909                           ;	BORV = LOW, Brown-out voltage (Vbor) set to 2.45V
  4910                           ;	PPSLOCK bit One-Way Set Enable bit
  4911                           ;	PPS1WAY = ON, The PPSLOCK bit can be cleared and set only once; PPS registers remain l
      +                          ocked after one clear/set cycle
  4912                           ;	Stack Overflow/Underflow Reset Enable bit
  4913                           ;	STVREN = ON, Stack Overflow or Underflow will cause a Reset
  4914                           ;	Debugger enable bit
  4915                           ;	DEBUG = OFF, Background debugger disabled
  4916  8008                     	org	32776
  4917  8008  3FF3               	dw	16371
  4918                           
  4919                           ;Config register CONFIG3 @ 0x8009
  4920                           ;	User NVM self-write protection bits
  4921                           ;	WRT = OFF, Write protection off
  4922                           ;	Low Voltage Programming Enable bit
  4923                           ;	LVP = ON, Low Voltage programming enabled. MCLR/VPP pin function is MCLR. MCLRE config
      +                          uration bit is ignored.
  4924  8009                     	org	32777
  4925  8009  3FFF               	dw	16383
  4926                           
  4927                           ;Config register CONFIG4 @ 0x800A
  4928                           ;	User NVM Program Memory Code Protection bit
  4929                           ;	CP = OFF, User NVM code protection disabled
  4930                           ;	Data NVM Memory Code Protection bit
  4931                           ;	CPD = OFF, Data NVM code protection disabled
  4932  800A                     	org	32778
  4933  800A  3FFF               	dw	16383

Data Sizes:
    Strings     0
    Constant    2
    Data        3
    BSS         25
    Persistent  32
    Stack       0

Auto Spaces:
    Space          Size  Autos    Used
    COMMON           14     13      14
    BANK0            80      4      31
    BANK1            80      0       0
    BANK2            80      0       0
    BANK3            80      0       0
    BANK4            80      0       0
    BANK5            80      0       0
    BANK6            80      0       0
    BANK7            80      0       0
    BANK8            80      0       0
    BANK9            80      0       0
    BANK10           80      0       0
    BANK11           80      0       0
    BANK12           80      0       0
    BANK13           80      0       0
    BANK14           80      0       0
    BANK15           80      0       0
    BANK16           80      0       0
    BANK17           80      0       0
    BANK18           80      0       0
    BANK19           80      0       0
    BANK20           80      0       0
    BANK21           80      0       0
    BANK22           80      0       0
    BANK23           80      0       0
    BANK24           80      0       0
    BANK25           32      0       0

Pointer List with Targets:

    None.

Critical Paths under _main in COMMON

    _main->_UART
    _UART->_toupper
    _toupper->_islower
    _SYSTEM_Initialize->_PIN_MANAGER_Initialize
    _LED->_Send_LED_Frame
    _Send_LED_StartFrame->_SPI1_Exchange8bit
    _Send_LED_Frame->_SPI1_Exchange8bit
    _Send_LED_EndFrame->_SPI1_Exchange8bit

Critical Paths under _main in BANK0

    _main->_UART

Critical Paths under _main in BANK1

    None.

Critical Paths under _main in BANK2

    None.

Critical Paths under _main in BANK3

    None.

Critical Paths under _main in BANK4

    None.

Critical Paths under _main in BANK5

    None.

Critical Paths under _main in BANK6

    None.

Critical Paths under _main in BANK7

    None.

Critical Paths under _main in BANK8

    None.

Critical Paths under _main in BANK9

    None.

Critical Paths under _main in BANK10

    None.

Critical Paths under _main in BANK11

    None.

Critical Paths under _main in BANK12

    None.

Critical Paths under _main in BANK13

    None.

Critical Paths under _main in BANK14

    None.

Critical Paths under _main in BANK15

    None.

Critical Paths under _main in BANK16

    None.

Critical Paths under _main in BANK17

    None.

Critical Paths under _main in BANK18

    None.

Critical Paths under _main in BANK19

    None.

Critical Paths under _main in BANK20

    None.

Critical Paths under _main in BANK21

    None.

Critical Paths under _main in BANK22

    None.

Critical Paths under _main in BANK23

    None.

Critical Paths under _main in BANK24

    None.

Critical Paths under _main in BANK25

    None.

Call Graph Tables:

 ---------------------------------------------------------------------------------
 (Depth) Function   	        Calls       Base Space   Used Autos Params    Refs
 ---------------------------------------------------------------------------------
 (0) _main                                                 2     2      0    1351
                                              2 BANK0      2     2      0
                                _LED
                  _SYSTEM_Initialize
                               _UART
 ---------------------------------------------------------------------------------
 (1) _UART                                                 5     5      0     566
                                             10 COMMON     3     3      0
                                              0 BANK0      2     2      0
                        _EUSART_Read
                    _LED_SetSetpoint
                        _LED_Setblue
                       _LED_Setgreen
                         _LED_Setred
                            _toupper
 ---------------------------------------------------------------------------------
 (2) _toupper                                              4     2      2     388
                                              6 COMMON     4     2      2
                            _islower
 ---------------------------------------------------------------------------------
 (3) _islower                                              6     4      2     161
                                              0 COMMON     6     4      2
 ---------------------------------------------------------------------------------
 (2) _LED_Setred                                           2     2      0      22
                                              0 COMMON     2     2      0
 ---------------------------------------------------------------------------------
 (2) _LED_Setgreen                                         2     2      0      22
                                              0 COMMON     2     2      0
 ---------------------------------------------------------------------------------
 (2) _LED_Setblue                                          2     2      0      22
                                              0 COMMON     2     2      0
 ---------------------------------------------------------------------------------
 (2) _LED_SetSetpoint                                      2     2      0      22
                                              0 COMMON     2     2      0
 ---------------------------------------------------------------------------------
 (2) _EUSART_Read                                          0     0      0       0
 ---------------------------------------------------------------------------------
 (1) _SYSTEM_Initialize                                    0     0      0      15
                  _EUSART_Initialize
              _OSCILLATOR_Initialize
             _PIN_MANAGER_Initialize
                    _SPI1_Initialize
                     _WDT_Initialize
 ---------------------------------------------------------------------------------
 (2) _WDT_Initialize                                       0     0      0       0
 ---------------------------------------------------------------------------------
 (2) _SPI1_Initialize                                      0     0      0       0
 ---------------------------------------------------------------------------------
 (2) _PIN_MANAGER_Initialize                               1     1      0      15
                                              0 COMMON     1     1      0
 ---------------------------------------------------------------------------------
 (2) _OSCILLATOR_Initialize                                0     0      0       0
 ---------------------------------------------------------------------------------
 (2) _EUSART_Initialize                                    0     0      0       0
 ---------------------------------------------------------------------------------
 (1) _LED                                                  4     4      0     770
                                              5 COMMON     4     4      0
                  _Send_LED_EndFrame
                     _Send_LED_Frame
                _Send_LED_StartFrame
 ---------------------------------------------------------------------------------
 (2) _Send_LED_StartFrame                                  3     3      0      68
                                              1 COMMON     3     3      0
                  _SPI1_Exchange8bit
 ---------------------------------------------------------------------------------
 (2) _Send_LED_Frame                                       4     1      3     566
                                              1 COMMON     4     1      3
                  _SPI1_Exchange8bit
 ---------------------------------------------------------------------------------
 (2) _Send_LED_EndFrame                                    3     3      0      68
                                              1 COMMON     3     3      0
                  _SPI1_Exchange8bit
 ---------------------------------------------------------------------------------
 (3) _SPI1_Exchange8bit                                    1     1      0      22
                                              0 COMMON     1     1      0
 ---------------------------------------------------------------------------------
 Estimated maximum stack depth 3
 ---------------------------------------------------------------------------------

 Call Graph Graphs:

 _main (ROOT)
   _LED
     _Send_LED_EndFrame
       _SPI1_Exchange8bit
     _Send_LED_Frame
       _SPI1_Exchange8bit
     _Send_LED_StartFrame
       _SPI1_Exchange8bit
   _SYSTEM_Initialize
     _EUSART_Initialize
     _OSCILLATOR_Initialize
     _PIN_MANAGER_Initialize
     _SPI1_Initialize
     _WDT_Initialize
   _UART
     _EUSART_Read
     _LED_SetSetpoint
     _LED_Setblue
     _LED_Setgreen
     _LED_Setred
     _toupper
       _islower

 Address spaces:
Name               Size   Autos  Total    Cost      Usage
BIGRAM             7F0      0       0       0        0.0%
EEDATA             100      0       0       0        0.0%
NULL                 0      0       0       0        0.0%
CODE                 0      0       0       0        0.0%
BITCOMMON            E      0       0       1        0.0%
BITSFR0              0      0       0       1        0.0%
SFR0                 0      0       0       1        0.0%
COMMON               E      D       E       2      100.0%
BITSFR1              0      0       0       2        0.0%
SFR1                 0      0       0       2        0.0%
BITSFR2              0      0       0       3        0.0%
SFR2                 0      0       0       3        0.0%
STACK                0      0       0       3        0.0%
BITBANK0            50      0       0       4        0.0%
BITSFR3              0      0       0       4        0.0%
SFR3                 0      0       0       4        0.0%
BANK0               50      4      1F       5       38.8%
BITSFR4              0      0       0       5        0.0%
SFR4                 0      0       0       5        0.0%
BITBANK1            50      0       0       6        0.0%
BITSFR5              0      0       0       6        0.0%
SFR5                 0      0       0       6        0.0%
BANK1               50      0       0       7        0.0%
BITSFR6              0      0       0       7        0.0%
SFR6                 0      0       0       7        0.0%
BITBANK2            50      0       0       8        0.0%
BITSFR7              0      0       0       8        0.0%
SFR7                 0      0       0       8        0.0%
BANK2               50      0       0       9        0.0%
BITSFR8              0      0       0       9        0.0%
SFR8                 0      0       0       9        0.0%
BITBANK3            50      0       0      10        0.0%
BITSFR9              0      0       0      10        0.0%
SFR9                 0      0       0      10        0.0%
BANK3               50      0       0      11        0.0%
BITSFR10             0      0       0      11        0.0%
SFR10                0      0       0      11        0.0%
BITBANK4            50      0       0      12        0.0%
BITSFR11             0      0       0      12        0.0%
SFR11                0      0       0      12        0.0%
BANK4               50      0       0      13        0.0%
BITSFR12             0      0       0      13        0.0%
SFR12                0      0       0      13        0.0%
BITSFR13             0      0       0      14        0.0%
SFR13                0      0       0      14        0.0%
ABS                  0      0      2D      14        0.0%
BITBANK5            50      0       0      15        0.0%
BITSFR14             0      0       0      15        0.0%
SFR14                0      0       0      15        0.0%
BANK5               50      0       0      16        0.0%
BITSFR15             0      0       0      16        0.0%
SFR15                0      0       0      16        0.0%
BITBANK6            50      0       0      17        0.0%
BITSFR16             0      0       0      17        0.0%
SFR16                0      0       0      17        0.0%
BANK6               50      0       0      18        0.0%
BITSFR17             0      0       0      18        0.0%
SFR17                0      0       0      18        0.0%
BITBANK7            50      0       0      19        0.0%
BITSFR18             0      0       0      19        0.0%
SFR18                0      0       0      19        0.0%
BANK7               50      0       0      20        0.0%
BITSFR19             0      0       0      20        0.0%
SFR19                0      0       0      20        0.0%
BITBANK8            50      0       0      21        0.0%
BITSFR20             0      0       0      21        0.0%
SFR20                0      0       0      21        0.0%
BANK8               50      0       0      22        0.0%
BITSFR21             0      0       0      22        0.0%
SFR21                0      0       0      22        0.0%
BITBANK9            50      0       0      23        0.0%
BITSFR22             0      0       0      23        0.0%
SFR22                0      0       0      23        0.0%
BANK9               50      0       0      24        0.0%
BITSFR23             0      0       0      24        0.0%
SFR23                0      0       0      24        0.0%
BITBANK10           50      0       0      25        0.0%
BITSFR24             0      0       0      25        0.0%
SFR24                0      0       0      25        0.0%
BANK10              50      0       0      26        0.0%
BITSFR25             0      0       0      26        0.0%
SFR25                0      0       0      26        0.0%
BITBANK11           50      0       0      27        0.0%
BITSFR26             0      0       0      27        0.0%
SFR26                0      0       0      27        0.0%
BITSFR27             0      0       0      28        0.0%
SFR27                0      0       0      28        0.0%
DATA                 0      0      2D      28        0.0%
BANK11              50      0       0      29        0.0%
BITSFR28             0      0       0      29        0.0%
SFR28                0      0       0      29        0.0%
BITBANK12           50      0       0      30        0.0%
BITSFR29             0      0       0      30        0.0%
SFR29                0      0       0      30        0.0%
BANK12              50      0       0      31        0.0%
BITSFR30             0      0       0      31        0.0%
SFR30                0      0       0      31        0.0%
BITBANK13           50      0       0      32        0.0%
BITSFR31             0      0       0      32        0.0%
SFR31                0      0       0      32        0.0%
BANK13              50      0       0      33        0.0%
BITBANK14           50      0       0      34        0.0%
BANK14              50      0       0      35        0.0%
BITBANK15           50      0       0      36        0.0%
BANK15              50      0       0      37        0.0%
BITBANK16           50      0       0      38        0.0%
BANK16              50      0       0      39        0.0%
BITBANK17           50      0       0      40        0.0%
BANK17              50      0       0      41        0.0%
BITBANK18           50      0       0      42        0.0%
BANK18              50      0       0      43        0.0%
BITBANK19           50      0       0      44        0.0%
BANK19              50      0       0      45        0.0%
BITBANK20           50      0       0      46        0.0%
BANK20              50      0       0      47        0.0%
BITBANK21           50      0       0      48        0.0%
BANK21              50      0       0      49        0.0%
BITBANK22           50      0       0      50        0.0%
BANK22              50      0       0      51        0.0%
BITBANK23           50      0       0      52        0.0%
BANK23              50      0       0      53        0.0%
BITBANK24           50      0       0      54        0.0%
BANK24              50      0       0      55        0.0%
BITBANK25           20      0       0      56        0.0%
BANK25              20      0       0      57        0.0%


Microchip Technology PIC Macro Assembler V2.35 build 20211206165544 
Symbol Table                                                                                   Fri Feb 24 17:04:10 2023

             _SPI1_Exchange8bit 062A              ?_SPI1_Exchange8bit 0070                              l31 05FA  
                            l25 065D                              l28 0629                              l82 0760  
                   ?_LED_Setred 0070                             l100 0600                             l103 062F  
                           l106 0634                             l221 0645                             l223 064D  
                           l143 06D3                             l216 063F                             l219 0640  
                           l262 061A                             l280 06B7                             l272 0718  
                           l256 0613                             l265 0621                             l275 0670  
                           l259 0606                             l195 07E8                             l285 069F  
                           l901 0687                             l930 0722                             l907 06CF  
                           l940 0737                             l932 0724                             l924 0719  
                           l950 0748                             l942 073D                             l934 0727  
                           l926 071D                             l960 0622                             l952 074D  
                           l944 073E                             l936 0729                             l928 0720  
                           l962 0626                             l954 0751                             l946 0740  
                           l938 0733                             l970 05FD                             l964 0628  
                           l956 075A                             l948 0744                             l972 05FF  
                           l974 0635                             l958 075B                             l966 05F7  
                           l976 063E                             l968 05FB                             l898 0687  
                           _GIE 005F                             _LED 06E8                             u210 0633  
                           u211 0632                             u300 0715                             u220 06C8  
                           u301 0714                             u221 06C6                             u230 06C9  
                           u310 0766                             u311 0765                             u240 0645  
                           u320 0784                             u241 0644                             u321 0783  
                           u250 064A                             u330 07BC                             u251 0649  
                           u331 07BB                             u260 0680                             u261 067F  
                           u270 06B7                             u271 06B6                             u335 07B8  
                           u407 06DF                             u280 069F                             u281 069E  
                           u417 076B                             u290 06F3                             u275 06B3  
                           u291 06F2                             u285 069B             ??_SPI1_Exchange8bit 0070  
                           _red 0035                             wreg 0009                    ?_EUSART_Read 0070  
                          ?_LED 0070                    ?_LED_Setblue 0070                            l1030 064E  
                          l1210 06A0                            l1202 060E                            l1220 06AA  
                          l1204 0602                            l1230 068A                            l1222 065F  
                          l1206 0615                            l1232 068E                            l1224 0688  
                          l1216 06A2                            l1208 061C                            l1234 0692  
                          l1218 06A6                            l1250 070B                            l1330 06D0  
                          l1172 062B                            l1252 070F                            l1244 06EC  
                          l1236 06E8                            l1180 06B8                            l1260 0768  
                          l1332 06D6                            l1174 062D                            l1254 0715  
                          l1246 06F3                            l1238 06EB                            l1270 0789  
                          l1262 0770                            l1334 06D9                            l1176 0633  
                          l1248 0704                            l1184 0640                            l1192 0671  
                          l1360 07DA                            l1280 079E                            l1272 078D  
                          l1264 077B                            l1256 0761                            l1186 064A  
                          l1290 07C7                            l1282 07AB                            l1274 079C  
                          l1266 077F                            l1258 0766                            l1188 064C  
                          l1196 0671                            l1292 07CC                            l1284 07AF  
                          l1268 0784                            l1198 0680                            l1286 07BD  
                          l1288 07C2                            l1296 07D1                ??_Send_LED_Frame 0074  
                          _LATA 010C                            _LATB 010D                            _LATC 010E  
                          _UART 0761                            _WPUA 020C                            _WPUB 020D  
                          _WPUC 020E                            _data 0020                            _blue 0037  
                          _main 06D0                            fsr0h 0005                            fsr1h 0007  
                          indf0 0000                            fsr0l 0004                            indf1 0001  
                          fsr1l 0006                            btemp 007E                            start 0002  
     __end_of_SPI1_Exchange8bit 0635                           ??_LED 0075                  _green@Led$F448 003E  
                         ?_UART 0070                   ?_LED_Setgreen 0070   __end_of_OSCILLATOR_Initialize 062A  
                         UART@i 0039                           ?_main 0070                           _OSCEN 091D  
                         _TRISA 008C                           _TRISB 008D                           _TRISC 008E  
                _WDT_Initialize 05F7                           _green 0036                           _index 0031  
                         _value 0028                 __end_of_islower 06D0               ??_LED_SetSetpoint 0070  
                         wtemp0 007E                 __end_of_toupper 0688                    __end_of_UART 07E9  
               __initialization 07E9                    __end_of_main 06E8                  ??_LED_Setgreen 0070  
                        ??_UART 007A                          ??_main 003B                          LED@led 0078  
        __end_of_WDT_Initialize 05FB                          _ANSELA 018C                          _ANSELB 018D  
                        _ANSELC 018E                          _RC1REG 0199                          _RC1STA 019D  
                        _ODCONA 028C                          _ODCONB 028D                          _ODCONC 028E  
                        _OSCFRQ 091F                          _TX1REG 019A                          _WDTCON 0097  
                        _TX1STA 019E           SPI1_Exchange8bit@data 0070                    __pdataCOMMON 007D  
                     ??_islower 0072                 ?_WDT_Initialize 0070                       ??_toupper 0078  
             _SYSTEM_Initialize 064E         __end_of__initialization 07FD               _setpoint@Led$F450 0033  
            ?_SYSTEM_Initialize 0070                  __pcstackCOMMON 0070                    __pidataBANK0 05F5  
           ??_SYSTEM_Initialize 0071               ??_SPI1_Initialize 0070                    ??_LED_Setred 0070  
     __end_of_SYSTEM_Initialize 065E                      __pbssBANK0 0020            __end_of_LED_Setgreen 061B  
             _Send_LED_EndFrame 0688              ?_Send_LED_EndFrame 0070              __end_of_LED_Setred 0622  
                _SSP1DATPPSbits 0E21                      __pmaintext 06D0             ??_Send_LED_EndFrame 0071  
          Send_LED_StartFrame@i 0072                  _SSP1CLKPPSbits 0E20                 _LED_SetSetpoint 060D  
                       _SP1BRGH 019C                         _SP1BRGL 019B                         _OSCCON1 0919  
                       _OSCCON3 091B                         _OSCTUNE 091E                         _SSP1ADD 0212  
                       _PPSLOCK 0E0F                         _SSP1BUF 0211       __end_of_Send_LED_EndFrame 06A0  
                       __ptext1 0761                         __ptext2 0671                         __ptext3 06B8  
                       __ptext4 061B                         __ptext5 0614                         __ptext6 0601  
                       __ptext7 060D                         __ptext8 0640                         __ptext9 064E  
                       _command 0034           _OSCILLATOR_Initialize 0622                         _islower 06B8  
      ??_PIN_MANAGER_Initialize 0070                         clrloop0 0608                         _toupper 0671  
          end_of_initialization 07FD             _Send_LED_StartFrame 06A0               _EUSART_Initialize 0635  
                  _red@Led$F449 003D              ?_EUSART_Initialize 0070            ?_Send_LED_StartFrame 0070  
       __end_of_LED_SetSetpoint 0614             ??_EUSART_Initialize 0070                ??_WDT_Initialize 0070  
                    _printCycle 002F                       _RXPPSbits 0E24       __end_of_EUSART_Initialize 0640  
               _SPI1_Initialize 05FB         Send_LED_Frame@intensity 0074           ??_Send_LED_StartFrame 0071  
                 __pidataCOMMON 05F4                    _LED_Setgreen 0614               LED_Setgreen@value 0071  
        ?_OSCILLATOR_Initialize 0070             start_initialization 07E9                     __end_of_LED 0719  
                 ??_EUSART_Read 0070                   ??_LED_Setblue 0070            __end_of_NumberOfLEDs 0802  
                 _blue@Led$F447 007D                     __pdataBANK0 003D                ?_LED_SetSetpoint 0070  
                     ___latbits 0003                   __pcstackBANK0 0039         __end_of_SPI1_Initialize 0601  
           __end_of_EUSART_Read 064E             __end_of_LED_Setblue 0607          _PIN_MANAGER_Initialize 0719  
                _Send_LED_Frame 065E            LED_SetSetpoint@value 0071                        _BAUD1CON 019F  
                      ?_islower 0070                        ?_toupper 0076                       clear_ram0 0607  
        __end_of_Send_LED_Frame 0671                LED_Setblue@value 0071                        _PIR1bits 0011  
                      _SSP1CON1 0215                        _SSP1STAT 0214                     _EUSART_Read 0640  
              ?_SPI1_Initialize 0070                     _LED_Setblue 0601                 ?_Send_LED_Frame 0071  
       ??_OSCILLATOR_Initialize 0070                    _NumberOfLEDs 0800                        __ptext10 05F7  
                      __ptext11 05FB                        __ptext12 0719                        __ptext13 0622  
                      __ptext14 0635                        __ptext15 06E8                        __ptext16 06A0  
                      __ptext17 065E                        __ptext18 0688                        __ptext19 062A  
                  _SSP1CON1bits 0215     __end_of_Send_LED_StartFrame 06B8                      _RC1STAbits 019D  
                    _RB4PPSbits 0E9C                      _RB6PPSbits 0E9E                        _setpoint 0038  
                    _RB7PPSbits 0E9F                    _SSP1STATbits 0214     PIN_MANAGER_Initialize@state 0070  
                    _LED_Setred 061B                 LED_Setred@value 0071             Send_LED_Frame@green 0072  
            Send_LED_EndFrame@i 0072                        islower@c 0070         ?_PIN_MANAGER_Initialize 0070  
                   _PPSLOCKbits 0E0F                   __pstringtext1 0800              Send_LED_Frame@blue 0071  
                      toupper@c 0076               Send_LED_Frame@red 0073  __end_of_PIN_MANAGER_Initialize 0761  
